;/////////////////////////////////////////////////////////////////////////////////
;// Code Generator: BoostC Compiler - http://www.sourceboost.com
;// Version       : 8.01
;// License Type  : Pro License
;// Limitations   : PIC18 max code size:Unlimited, max RAM banks:Unlimited
;/////////////////////////////////////////////////////////////////////////////////

	ORG 0x00000000
0000  EF87F009  	GOTO	_startup
	ORG 0x00000008
0008  EF40F00A  	GOTO	interrupt
	ORG 0x0000000C
000C            delay_us_00000
000C            ; { delay_us ; function begin
000C  0E01      	MOVLW 0x01
000E  279B      	ADDWF delay_us_00000_arg_del, F, 1
0010  339B      	RRCF delay_us_00000_arg_del, F, 1
0012  0EFF      	MOVLW 0xFF
0014  179B      	ANDWF delay_us_00000_arg_del, F, 1
0016            label1
0016  0000      	NOP
0018  0000      	NOP
001A  2F9B      	DECFSZ delay_us_00000_arg_del, F, 1
001C  D7FC      	BRA	label1
001E  0012      	RETURN
0020            ; } delay_us function end

	ORG 0x00000020
0020            delay_ms_00000
0020            ; { delay_ms ; function begin
0020  5395      	MOVF delay_ms_00000_arg_del, F, 1
0022  0000      	NOP
0024  E101      	BNZ	label2
0026  0012      	RETURN
0028            label2
0028  0EF9      	MOVLW 0xF9
002A            label3
002A  0000      	NOP
002C  0000      	NOP
002E  0000      	NOP
0030  0000      	NOP
0032  0000      	NOP
0034  0000      	NOP
0036  0FFF      	ADDLW 0xFF
0038  A4D8      	BTFSS STATUS,Z
003A  D7F7      	BRA	label3
003C  0000      	NOP
003E  0000      	NOP
0040  0000      	NOP
0042  0000      	NOP
0044  0000      	NOP
0046  0000      	NOP
0048  0000      	NOP
004A  2F95      	DECFSZ delay_ms_00000_arg_del, F, 1
004C  D7ED      	BRA	label2
004E  0012      	RETURN
0050            ; } delay_ms function end

	ORG 0x00000050
0050            delay_s_00000
0050            ; { delay_s ; function begin
0050            label4
0050  0EFA      	MOVLW 0xFA
0052  6F95      	MOVWF delay_ms_00000_arg_del, 1
0054  EC10F000  	CALL delay_ms_00000
0058  0EFA      	MOVLW 0xFA
005A  6F95      	MOVWF delay_ms_00000_arg_del, 1
005C  EC10F000  	CALL delay_ms_00000
0060  0EFA      	MOVLW 0xFA
0062  6F95      	MOVWF delay_ms_00000_arg_del, 1
0064  EC10F000  	CALL delay_ms_00000
0068  0EFA      	MOVLW 0xFA
006A  6F95      	MOVWF delay_ms_00000_arg_del, 1
006C  EC10F000  	CALL delay_ms_00000
0070  2F94      	DECFSZ delay_s_00000_arg_del, F, 1
0072  D7EE      	BRA	label4
0074  0012      	RETURN
0076            ; } delay_s function end

	ORG 0x00000076
0076            ledSendCha_0001D
0076            ; { ledSendChar ; function begin
0076  0E80      	MOVLW 0x80
0078  6F9C      	MOVWF ledSendCha_0001D_2_cBitSelect, 1
007A            label5
007A  539C      	MOVF ledSendCha_0001D_2_cBitSelect, F, 1
007C  B4D8      	BTFSC STATUS,Z
007E  0012      	RETURN
0080  9881      	BCF gbl_portb,4
0082  519C      	MOVF ledSendCha_0001D_2_cBitSelect, W, 1
0084  159B      	ANDWF ledSendCha_0001D_arg_iData, W, 1
0086  E002      	BZ	label6
0088  8681      	BSF gbl_portb,3
008A  D001      	BRA	label7
008C            label6
008C  9681      	BCF gbl_portb,3
008E            label7
008E  8881      	BSF gbl_portb,4
0090  90D8      	BCF STATUS,C
0092  339C      	RRCF ledSendCha_0001D_2_cBitSelect, F, 1
0094  D7F2      	BRA	label5
0096            ; } ledSendChar function end

	ORG 0x00000096
0096            ledLatchUp_00000
0096            ; { ledLatchUp ; function begin
0096  8A81      	BSF gbl_portb,5
0098  9881      	BCF gbl_portb,4
009A  9681      	BCF gbl_portb,3
009C  0E28      	MOVLW 0x28
009E  0100      	MOVLB 0x00
00A0  6F9B      	MOVWF delay_us_00000_arg_del, 1
00A2  EC06F000  	CALL delay_us_00000
00A6  0012      	RETURN
00A8            ; } ledLatchUp function end

	ORG 0x000000A8
00A8            ledLatchDo_0001C
00A8            ; { ledLatchDown ; function begin
00A8  9681      	BCF gbl_portb,3
00AA  9881      	BCF gbl_portb,4
00AC  9A81      	BCF gbl_portb,5
00AE  0012      	RETURN
00B0            ; } ledLatchDown function end

	ORG 0x000000B0
00B0            ledWrite_00000
00B0            ; { ledWrite ; function begin
00B0  0E07      	MOVLW 0x07
00B2  0100      	MOVLB 0x00
00B4  6F9A      	MOVWF ledWrite_00000_1_d, 1
00B6  0E01      	MOVLW 0x01
00B8  6F99      	MOVWF ledWrite_00000_1_n, 1
00BA            label8
00BA  0E09      	MOVLW 0x09
00BC  6199      	CPFSLT ledWrite_00000_1_n, 1
00BE  0012      	RETURN
00C0  EC54F000  	CALL ledLatchDo_0001C
00C4  5199      	MOVF ledWrite_00000_1_n, W, 1
00C6  6F9B      	MOVWF ledSendCha_0001D_arg_iData, 1
00C8  EC3BF000  	CALL ledSendCha_0001D
00CC  EE00F068  	LFSR 0x00,  gbl_ledData2
00D0  50E9      	MOVF FSR0L, W
00D2  519A      	MOVF ledWrite_00000_1_d, W, 1
00D4  26E9      	ADDWF FSR0L, F
00D6  50EF      	MOVF INDF0, W
00D8  6F9B      	MOVWF ledSendCha_0001D_arg_iData, 1
00DA  EC3BF000  	CALL ledSendCha_0001D
00DE  5199      	MOVF ledWrite_00000_1_n, W, 1
00E0  6F9B      	MOVWF ledSendCha_0001D_arg_iData, 1
00E2  EC3BF000  	CALL ledSendCha_0001D
00E6  EE00F060  	LFSR 0x00,  gbl_ledData1
00EA  50E9      	MOVF FSR0L, W
00EC  519A      	MOVF ledWrite_00000_1_d, W, 1
00EE  26E9      	ADDWF FSR0L, F
00F0  50EF      	MOVF INDF0, W
00F2  6F9B      	MOVWF ledSendCha_0001D_arg_iData, 1
00F4  EC3BF000  	CALL ledSendCha_0001D
00F8  EC4BF000  	CALL ledLatchUp_00000
00FC  079A      	DECF ledWrite_00000_1_d, F, 1
00FE  2B99      	INCF ledWrite_00000_1_n, F, 1
0100  D7DC      	BRA	label8
0102            ; } ledWrite function end

	ORG 0x00000102
0102            ledPrint_00000
0102            ; { ledPrint ; function begin
0102  6BA5      	CLRF ledPrint_00000_1_dig, 1
0104            label9
0104  0E08      	MOVLW 0x08
0106  61A5      	CPFSLT ledPrint_00000_1_dig, 1
0108  0012      	RETURN
010A  519B      	MOVF ledPrint_00000_arg_s+D'1', W, 1
010C  6EEA      	MOVWF FSR0H
010E  519A      	MOVF ledPrint_00000_arg_s, W, 1
0110  6EE9      	MOVWF FSR0L
0112  52EF      	MOVF INDF0, F
0114  E042      	BZ	label11
0116  0599      	DECF ledPrint_00000_arg_iLine, W, 1
0118  E120      	BNZ	label10
011A  EE00F005  	LFSR 0x00,  gbl_displayASCIItoSeg
011E  50E9      	MOVF FSR0L, W
0120  50EA      	MOVF FSR0H, W
0122  6FA7      	MOVWF CompTempVar586, 1
0124  50E9      	MOVF FSR0L, W
0126  6FA8      	MOVWF CompTempVar587, 1
0128  519B      	MOVF ledPrint_00000_arg_s+D'1', W, 1
012A  6EEA      	MOVWF FSR0H
012C  519A      	MOVF ledPrint_00000_arg_s, W, 1
012E  6EE9      	MOVWF FSR0L
0130  4B9A      	INFSNZ ledPrint_00000_arg_s, F, 1
0132  2B9B      	INCF ledPrint_00000_arg_s+D'1', F, 1
0134  0E20      	MOVLW 0x20
0136  5CEF      	SUBWF INDF0, W
0138  6FA6      	MOVWF CompTempVar585, 1
013A  51A6      	MOVF CompTempVar585, W, 1
013C  27A8      	ADDWF CompTempVar587, F, 1
013E  51A8      	MOVF CompTempVar587, W, 1
0140  6EE9      	MOVWF FSR0L
0142  51A7      	MOVF CompTempVar586, W, 1
0144  6EEA      	MOVWF FSR0H
0146  50EF      	MOVF INDF0, W
0148  6FA9      	MOVWF CompTempVar588, 1
014A  EE00F060  	LFSR 0x00,  gbl_ledData1
014E  50E9      	MOVF FSR0L, W
0150  51A5      	MOVF ledPrint_00000_1_dig, W, 1
0152  26E9      	ADDWF FSR0L, F
0154  51A9      	MOVF CompTempVar588, W, 1
0156  6EEF      	MOVWF INDF0
0158  D031      	BRA	label13
015A            label10
015A  EE00F005  	LFSR 0x00,  gbl_displayASCIItoSeg
015E  50E9      	MOVF FSR0L, W
0160  50EA      	MOVF FSR0H, W
0162  6FA7      	MOVWF CompTempVar592, 1
0164  50E9      	MOVF FSR0L, W
0166  6FA8      	MOVWF CompTempVar593, 1
0168  519B      	MOVF ledPrint_00000_arg_s+D'1', W, 1
016A  6EEA      	MOVWF FSR0H
016C  519A      	MOVF ledPrint_00000_arg_s, W, 1
016E  6EE9      	MOVWF FSR0L
0170  4B9A      	INFSNZ ledPrint_00000_arg_s, F, 1
0172  2B9B      	INCF ledPrint_00000_arg_s+D'1', F, 1
0174  0E20      	MOVLW 0x20
0176  5CEF      	SUBWF INDF0, W
0178  6FA6      	MOVWF CompTempVar591, 1
017A  51A6      	MOVF CompTempVar591, W, 1
017C  27A8      	ADDWF CompTempVar593, F, 1
017E  51A8      	MOVF CompTempVar593, W, 1
0180  6EE9      	MOVWF FSR0L
0182  51A7      	MOVF CompTempVar592, W, 1
0184  6EEA      	MOVWF FSR0H
0186  50EF      	MOVF INDF0, W
0188  6FA9      	MOVWF CompTempVar594, 1
018A  EE00F068  	LFSR 0x00,  gbl_ledData2
018E  50E9      	MOVF FSR0L, W
0190  51A5      	MOVF ledPrint_00000_1_dig, W, 1
0192  26E9      	ADDWF FSR0L, F
0194  51A9      	MOVF CompTempVar594, W, 1
0196  6EEF      	MOVWF INDF0
0198  D011      	BRA	label13
019A            label11
019A  0599      	DECF ledPrint_00000_arg_iLine, W, 1
019C  E108      	BNZ	label12
019E  EE00F060  	LFSR 0x00,  gbl_ledData1
01A2  50E9      	MOVF FSR0L, W
01A4  51A5      	MOVF ledPrint_00000_1_dig, W, 1
01A6  26E9      	ADDWF FSR0L, F
01A8  0E00      	MOVLW 0x00
01AA  6EEF      	MOVWF INDF0
01AC  D007      	BRA	label13
01AE            label12
01AE  EE00F068  	LFSR 0x00,  gbl_ledData2
01B2  50E9      	MOVF FSR0L, W
01B4  51A5      	MOVF ledPrint_00000_1_dig, W, 1
01B6  26E9      	ADDWF FSR0L, F
01B8  0E00      	MOVLW 0x00
01BA  6EEF      	MOVWF INDF0
01BC            label13
01BC  2BA5      	INCF ledPrint_00000_1_dig, F, 1
01BE  D7A2      	BRA	label9
01C0            ; } ledPrint function end

	ORG 0x000001C0
01C0            ledChar_00000
01C0            ; { ledChar ; function begin
01C0  EE00F005  	LFSR 0x00,  gbl_displayASCIItoSeg
01C4  50E9      	MOVF FSR0L, W
01C6  0E20      	MOVLW 0x20
01C8  5D9B      	SUBWF ledChar_00000_arg_iChar, W, 1
01CA  26E9      	ADDWF FSR0L, F
01CC  50EF      	MOVF INDF0, W
01CE  6F9D      	MOVWF ledChar_00000_1_iDecoded, 1
01D0  539C      	MOVF ledChar_00000_arg_iHasDot, F, 1
01D2  E003      	BZ	label14
01D4  0E80      	MOVLW 0x80
01D6  119D      	IORWF ledChar_00000_1_iDecoded, W, 1
01D8  6F9D      	MOVWF ledChar_00000_1_iDecoded, 1
01DA            label14
01DA  0586      	DECF gbl_ledCurrentLine, W, 1
01DC  E108      	BNZ	label15
01DE  EE00F060  	LFSR 0x00,  gbl_ledData1
01E2  50E9      	MOVF FSR0L, W
01E4  5187      	MOVF gbl_ledCurrentCol, W, 1
01E6  26E9      	ADDWF FSR0L, F
01E8  519D      	MOVF ledChar_00000_1_iDecoded, W, 1
01EA  6EEF      	MOVWF INDF0
01EC  D007      	BRA	label16
01EE            label15
01EE  EE00F068  	LFSR 0x00,  gbl_ledData2
01F2  50E9      	MOVF FSR0L, W
01F4  5187      	MOVF gbl_ledCurrentCol, W, 1
01F6  26E9      	ADDWF FSR0L, F
01F8  519D      	MOVF ledChar_00000_1_iDecoded, W, 1
01FA  6EEF      	MOVWF INDF0
01FC            label16
01FC  0E08      	MOVLW 0x08
01FE  6187      	CPFSLT gbl_ledCurrentCol, 1
0200  0012      	RETURN
0202  2B87      	INCF gbl_ledCurrentCol, F, 1
0204  0012      	RETURN
0206            ; } ledChar function end

	ORG 0x00000206
0206            printMute_00000
0206            ; { printMute ; function begin
0206  0E02      	MOVLW 0x02
0208  0100      	MOVLB 0x00
020A  6F99      	MOVWF ledPrint_00000_arg_iLine, 1
020C  0E53      	MOVLW 0x53
020E  6F9C      	MOVWF CompTempVar610, 1
0210  0E6E      	MOVLW 0x6E
0212  6F9D      	MOVWF CompTempVar610+D'1', 1
0214  0E64      	MOVLW 0x64
0216  6F9E      	MOVWF CompTempVar610+D'2', 1
0218  0E20      	MOVLW 0x20
021A  6F9F      	MOVWF CompTempVar610+D'3', 1
021C  0E4F      	MOVLW 0x4F
021E  6FA0      	MOVWF CompTempVar610+D'4', 1
0220  0E46      	MOVLW 0x46
0222  6FA1      	MOVWF CompTempVar610+D'5', 1
0224  6FA2      	MOVWF CompTempVar610+D'6', 1
0226  6BA3      	CLRF CompTempVar610+D'7', 1
0228  0E00      	MOVLW HIGH(CompTempVar610+D'0')
022A  6F9B      	MOVWF ledPrint_00000_arg_s+D'1', 1
022C  0E9C      	MOVLW LOW(CompTempVar610+D'0')
022E  6F9A      	MOVWF ledPrint_00000_arg_s, 1
0230  EC81F000  	CALL ledPrint_00000
0234  EC58F000  	CALL ledWrite_00000
0238  0012      	RETURN
023A            ; } printMute function end

	ORG 0x0000023A
023A            ledSetup_00000
023A            ; { ledSetup ; function begin
023A  EC54F000  	CALL ledLatchDo_0001C
023E  0E0B      	MOVLW 0x0B
0240  0100      	MOVLB 0x00
0242  6F9B      	MOVWF ledSendCha_0001D_arg_iData, 1
0244  EC3BF000  	CALL ledSendCha_0001D
0248  0E07      	MOVLW 0x07
024A  6F9B      	MOVWF ledSendCha_0001D_arg_iData, 1
024C  EC3BF000  	CALL ledSendCha_0001D
0250  0E0B      	MOVLW 0x0B
0252  6F9B      	MOVWF ledSendCha_0001D_arg_iData, 1
0254  EC3BF000  	CALL ledSendCha_0001D
0258  0E07      	MOVLW 0x07
025A  6F9B      	MOVWF ledSendCha_0001D_arg_iData, 1
025C  EC3BF000  	CALL ledSendCha_0001D
0260  EC4BF000  	CALL ledLatchUp_00000
0264  EC54F000  	CALL ledLatchDo_0001C
0268  0E09      	MOVLW 0x09
026A  6F9B      	MOVWF ledSendCha_0001D_arg_iData, 1
026C  EC3BF000  	CALL ledSendCha_0001D
0270  6B9B      	CLRF ledSendCha_0001D_arg_iData, 1
0272  EC3BF000  	CALL ledSendCha_0001D
0276  0E09      	MOVLW 0x09
0278  6F9B      	MOVWF ledSendCha_0001D_arg_iData, 1
027A  EC3BF000  	CALL ledSendCha_0001D
027E  6B9B      	CLRF ledSendCha_0001D_arg_iData, 1
0280  EC3BF000  	CALL ledSendCha_0001D
0284  EC4BF000  	CALL ledLatchUp_00000
0288  EC54F000  	CALL ledLatchDo_0001C
028C  0E0A      	MOVLW 0x0A
028E  6F9B      	MOVWF ledSendCha_0001D_arg_iData, 1
0290  EC3BF000  	CALL ledSendCha_0001D
0294  0E06      	MOVLW 0x06
0296  6F9B      	MOVWF ledSendCha_0001D_arg_iData, 1
0298  EC3BF000  	CALL ledSendCha_0001D
029C  0E0A      	MOVLW 0x0A
029E  6F9B      	MOVWF ledSendCha_0001D_arg_iData, 1
02A0  EC3BF000  	CALL ledSendCha_0001D
02A4  0E06      	MOVLW 0x06
02A6  6F9B      	MOVWF ledSendCha_0001D_arg_iData, 1
02A8  EC3BF000  	CALL ledSendCha_0001D
02AC  EC4BF000  	CALL ledLatchUp_00000
02B0  0012      	RETURN
02B2            ; } ledSetup function end

	ORG 0x000002B2
02B2            getAdjuste_00021
02B2            ; { getAdjustedVolume ; function begin
02B2  519C      	MOVF getAdjuste_00021_arg_iVolAdj, W, 1
02B4  2573      	ADDWF gbl_iVolume, W, 1
02B6  6F9D      	MOVWF getAdjuste_00021_1_iResult, 1
02B8  AF9C      	BTFSS getAdjuste_00021_arg_iVolAdj,7, 1
02BA  D005      	BRA	label17
02BC  519D      	MOVF getAdjuste_00021_1_iResult, W, 1
02BE  6173      	CPFSLT gbl_iVolume, 1
02C0  D006      	BRA	label18
02C2  6B9D      	CLRF getAdjuste_00021_1_iResult, 1
02C4  D004      	BRA	label18
02C6            label17
02C6  5173      	MOVF gbl_iVolume, W, 1
02C8  619D      	CPFSLT getAdjuste_00021_1_iResult, 1
02CA  D001      	BRA	label18
02CC  699D      	SETF getAdjuste_00021_1_iResult, 1
02CE            label18
02CE  519D      	MOVF getAdjuste_00021_1_iResult, W, 1
02D0  6F9E      	MOVWF CompTempVarRet669, 1
02D2  0012      	RETURN
02D4            ; } getAdjustedVolume function end

	ORG 0x000002D4
02D4            functionVa_00023
02D4            ; { functionValueDisplay ; function begin
02D4  6B68      	CLRF gbl_ledData2, 1
02D6  6B69      	CLRF gbl_ledData2+D'1', 1
02D8  0E02      	MOVLW 0x02
02DA  6F86      	MOVWF gbl_ledCurrentLine, 1
02DC  5395      	MOVF functionVa_00023_arg_isBal, F, 1
02DE  E012      	BZ	label20
02E0  6B87      	CLRF gbl_ledCurrentCol, 1
02E2  AF94      	BTFSS functionVa_00023_arg_iValue,7, 1
02E4  D005      	BRA	label19
02E6  0E4C      	MOVLW 0x4C
02E8  6F9B      	MOVWF ledChar_00000_arg_iChar, 1
02EA  6B9C      	CLRF ledChar_00000_arg_iHasDot, 1
02EC  ECE0F000  	CALL ledChar_00000
02F0            label19
02F0  0E00      	MOVLW 0x00
02F2  BF94      	BTFSC functionVa_00023_arg_iValue,7, 1
02F4  D007      	BRA	label20
02F6  6594      	CPFSGT functionVa_00023_arg_iValue, 1
02F8  D005      	BRA	label20
02FA  0E72      	MOVLW 0x72
02FC  6F9B      	MOVWF ledChar_00000_arg_iChar, 1
02FE  6B9C      	CLRF ledChar_00000_arg_iHasDot, 1
0300  ECE0F000  	CALL ledChar_00000
0304            label20
0304  0E01      	MOVLW 0x01
0306  6F87      	MOVWF gbl_ledCurrentCol, 1
0308  AF94      	BTFSS functionVa_00023_arg_iValue,7, 1
030A  D005      	BRA	label21
030C  0E2D      	MOVLW 0x2D
030E  6F9B      	MOVWF ledChar_00000_arg_iChar, 1
0310  6B9C      	CLRF ledChar_00000_arg_iHasDot, 1
0312  ECE0F000  	CALL ledChar_00000
0316            label21
0316  0E00      	MOVLW 0x00
0318  BF94      	BTFSC functionVa_00023_arg_iValue,7, 1
031A  D009      	BRA	label22
031C  6594      	CPFSGT functionVa_00023_arg_iValue, 1
031E  D007      	BRA	label22
0320  5395      	MOVF functionVa_00023_arg_isBal, F, 1
0322  E005      	BZ	label22
0324  0E2D      	MOVLW 0x2D
0326  6F9B      	MOVWF ledChar_00000_arg_iChar, 1
0328  6B9C      	CLRF ledChar_00000_arg_iHasDot, 1
032A  ECE0F000  	CALL ledChar_00000
032E            label22
032E  0E00      	MOVLW 0x00
0330  6194      	CPFSLT functionVa_00023_arg_iValue, 1
0332  D001      	BRA	label23
0334  D005      	BRA	label24
0336            label23
0336  BF94      	BTFSC functionVa_00023_arg_iValue,7, 1
0338  D003      	BRA	label24
033A  5194      	MOVF functionVa_00023_arg_iValue, W, 1
033C  6F96      	MOVWF functionVa_00023_1_iAdj, 1
033E  D003      	BRA	label25
0340            label24
0340  1D94      	COMF functionVa_00023_arg_iValue, W, 1
0342  6F96      	MOVWF functionVa_00023_1_iAdj, 1
0344  2B96      	INCF functionVa_00023_1_iAdj, F, 1
0346            label25
0346  6B97      	CLRF functionVa_00023_1_iDecimal, 1
0348  A196      	BTFSS functionVa_00023_1_iAdj,0, 1
034A  D002      	BRA	label26
034C  0E05      	MOVLW 0x05
034E  6F97      	MOVWF functionVa_00023_1_iDecimal, 1
0350            label26
0350  5396      	MOVF functionVa_00023_1_iAdj, F, 1
0352  90D8      	BCF STATUS,C
0354  3396      	RRCF functionVa_00023_1_iAdj, F, 1
0356  0E02      	MOVLW 0x02
0358  6F87      	MOVWF gbl_ledCurrentCol, 1
035A  0E0A      	MOVLW 0x0A
035C  6196      	CPFSLT functionVa_00023_1_iAdj, 1
035E  D001      	BRA	label27
0360  D008      	BRA	label28
0362            label27
0362  0E31      	MOVLW 0x31
0364  6F9B      	MOVWF ledChar_00000_arg_iChar, 1
0366  6B9C      	CLRF ledChar_00000_arg_iHasDot, 1
0368  ECE0F000  	CALL ledChar_00000
036C  0E0A      	MOVLW 0x0A
036E  5F96      	SUBWF functionVa_00023_1_iAdj, F, 1
0370  D005      	BRA	label29
0372            label28
0372  0E20      	MOVLW 0x20
0374  6F9B      	MOVWF ledChar_00000_arg_iChar, 1
0376  6B9C      	CLRF ledChar_00000_arg_iHasDot, 1
0378  ECE0F000  	CALL ledChar_00000
037C            label29
037C  0E30      	MOVLW 0x30
037E  2596      	ADDWF functionVa_00023_1_iAdj, W, 1
0380  6F9B      	MOVWF ledChar_00000_arg_iChar, 1
0382  0E01      	MOVLW 0x01
0384  6F9C      	MOVWF ledChar_00000_arg_iHasDot, 1
0386  ECE0F000  	CALL ledChar_00000
038A  0E30      	MOVLW 0x30
038C  2597      	ADDWF functionVa_00023_1_iDecimal, W, 1
038E  6F9B      	MOVWF ledChar_00000_arg_iChar, 1
0390  6B9C      	CLRF ledChar_00000_arg_iHasDot, 1
0392  ECE0F000  	CALL ledChar_00000
0396  0E20      	MOVLW 0x20
0398  6F9B      	MOVWF ledChar_00000_arg_iChar, 1
039A  6B9C      	CLRF ledChar_00000_arg_iHasDot, 1
039C  ECE0F000  	CALL ledChar_00000
03A0  0E64      	MOVLW 0x64
03A2  6F9B      	MOVWF ledChar_00000_arg_iChar, 1
03A4  6B9C      	CLRF ledChar_00000_arg_iHasDot, 1
03A6  ECE0F000  	CALL ledChar_00000
03AA  0E62      	MOVLW 0x62
03AC  6F9B      	MOVWF ledChar_00000_arg_iChar, 1
03AE  6B9C      	CLRF ledChar_00000_arg_iHasDot, 1
03B0  ECE0F000  	CALL ledChar_00000
03B4  EC58F000  	CALL ledWrite_00000
03B8  0012      	RETURN
03BA            ; } functionValueDisplay function end

	ORG 0x000003BA
03BA            writeVolum_0001E
03BA            ; { writeVolumes ; function begin
03BA  0100      	MOVLB 0x00
03BC  6B96      	CLRF writeVolum_0001E_1_byteVolume, 1
03BE  6B97      	CLRF writeVolum_0001E_1_byteVolume+D'1', 1
03C0  6B98      	CLRF writeVolum_0001E_1_byteVolume+D'2', 1
03C2  6B99      	CLRF writeVolum_0001E_1_byteVolume+D'3', 1
03C4  6B9A      	CLRF writeVolum_0001E_1_byteVolume+D'4', 1
03C6  6B9B      	CLRF writeVolum_0001E_1_byteVolume+D'5', 1
03C8  5377      	MOVF gbl_iFrontBalance, F, 1
03CA  E105      	BNZ	label30
03CC  5173      	MOVF gbl_iVolume, W, 1
03CE  6F9A      	MOVWF writeVolum_0001E_1_byteVolume+D'4', 1
03D0  5173      	MOVF gbl_iVolume, W, 1
03D2  6F9B      	MOVWF writeVolum_0001E_1_byteVolume+D'5', 1
03D4  D018      	BRA	label32
03D6            label30
03D6  0E00      	MOVLW 0x00
03D8  BF77      	BTFSC gbl_iFrontBalance,7, 1
03DA  D00D      	BRA	label31
03DC  6577      	CPFSGT gbl_iFrontBalance, 1
03DE  D00B      	BRA	label31
03E0  0EFF      	MOVLW 0xFF
03E2  0377      	MULWF gbl_iFrontBalance, 1
03E4  50F3      	MOVF PRODL, W
03E6  6F9C      	MOVWF getAdjuste_00021_arg_iVolAdj, 1
03E8  EC59F001  	CALL getAdjuste_00021
03EC  519E      	MOVF CompTempVarRet669, W, 1
03EE  6F9A      	MOVWF writeVolum_0001E_1_byteVolume+D'4', 1
03F0  5173      	MOVF gbl_iVolume, W, 1
03F2  6F9B      	MOVWF writeVolum_0001E_1_byteVolume+D'5', 1
03F4  D008      	BRA	label32
03F6            label31
03F6  5177      	MOVF gbl_iFrontBalance, W, 1
03F8  6F9C      	MOVWF getAdjuste_00021_arg_iVolAdj, 1
03FA  EC59F001  	CALL getAdjuste_00021
03FE  519E      	MOVF CompTempVarRet669, W, 1
0400  6F9B      	MOVWF writeVolum_0001E_1_byteVolume+D'5', 1
0402  5173      	MOVF gbl_iVolume, W, 1
0404  6F9A      	MOVWF writeVolum_0001E_1_byteVolume+D'4', 1
0406            label32
0406  5378      	MOVF gbl_iRearBalance, F, 1
0408  E10D      	BNZ	label33
040A  5179      	MOVF gbl_iRearAdjust, W, 1
040C  6F9C      	MOVWF getAdjuste_00021_arg_iVolAdj, 1
040E  EC59F001  	CALL getAdjuste_00021
0412  519E      	MOVF CompTempVarRet669, W, 1
0414  6F98      	MOVWF writeVolum_0001E_1_byteVolume+D'2', 1
0416  5179      	MOVF gbl_iRearAdjust, W, 1
0418  6F9C      	MOVWF getAdjuste_00021_arg_iVolAdj, 1
041A  EC59F001  	CALL getAdjuste_00021
041E  519E      	MOVF CompTempVarRet669, W, 1
0420  6F99      	MOVWF writeVolum_0001E_1_byteVolume+D'3', 1
0422  D029      	BRA	label35
0424            label33
0424  0E00      	MOVLW 0x00
0426  BF78      	BTFSC gbl_iRearBalance,7, 1
0428  D019      	BRA	label34
042A  6578      	CPFSGT gbl_iRearBalance, 1
042C  D017      	BRA	label34
042E  0EFF      	MOVLW 0xFF
0430  0378      	MULWF gbl_iRearBalance, 1
0432  50F3      	MOVF PRODL, W
0434  6F9C      	MOVWF getAdjuste_00021_arg_iVolAdj, 1
0436  50F4      	MOVF PRODH, W
0438  6F9D      	MOVWF CompTempVar642, 1
043A  0EFF      	MOVLW 0xFF
043C  0378      	MULWF gbl_iRearBalance, 1
043E  50F3      	MOVF PRODL, W
0440  279D      	ADDWF CompTempVar642, F, 1
0442  5179      	MOVF gbl_iRearAdjust, W, 1
0444  279C      	ADDWF getAdjuste_00021_arg_iVolAdj, F, 1
0446  EC59F001  	CALL getAdjuste_00021
044A  519E      	MOVF CompTempVarRet669, W, 1
044C  6F98      	MOVWF writeVolum_0001E_1_byteVolume+D'2', 1
044E  5179      	MOVF gbl_iRearAdjust, W, 1
0450  6F9C      	MOVWF getAdjuste_00021_arg_iVolAdj, 1
0452  EC59F001  	CALL getAdjuste_00021
0456  519E      	MOVF CompTempVarRet669, W, 1
0458  6F99      	MOVWF writeVolum_0001E_1_byteVolume+D'3', 1
045A  D00D      	BRA	label35
045C            label34
045C  5179      	MOVF gbl_iRearAdjust, W, 1
045E  2578      	ADDWF gbl_iRearBalance, W, 1
0460  6F9C      	MOVWF getAdjuste_00021_arg_iVolAdj, 1
0462  EC59F001  	CALL getAdjuste_00021
0466  519E      	MOVF CompTempVarRet669, W, 1
0468  6F99      	MOVWF writeVolum_0001E_1_byteVolume+D'3', 1
046A  5179      	MOVF gbl_iRearAdjust, W, 1
046C  6F9C      	MOVWF getAdjuste_00021_arg_iVolAdj, 1
046E  EC59F001  	CALL getAdjuste_00021
0472  519E      	MOVF CompTempVarRet669, W, 1
0474  6F98      	MOVWF writeVolum_0001E_1_byteVolume+D'2', 1
0476            label35
0476  517A      	MOVF gbl_iCentreAdjust, W, 1
0478  6F9C      	MOVWF getAdjuste_00021_arg_iVolAdj, 1
047A  EC59F001  	CALL getAdjuste_00021
047E  519E      	MOVF CompTempVarRet669, W, 1
0480  6F97      	MOVWF writeVolum_0001E_1_byteVolume+D'1', 1
0482  517B      	MOVF gbl_iSubAdjust, W, 1
0484  6F9C      	MOVWF getAdjuste_00021_arg_iVolAdj, 1
0486  EC59F001  	CALL getAdjuste_00021
048A  519E      	MOVF CompTempVarRet669, W, 1
048C  6F96      	MOVWF writeVolum_0001E_1_byteVolume, 1
048E  6780      	TSTFSZ gbl_iSurroundMode, 1
0490  D00D      	BRA	label37
0492  6B9C      	CLRF writeVolum_0001E_45_i, 1
0494            label36
0494  0E04      	MOVLW 0x04
0496  619C      	CPFSLT writeVolum_0001E_45_i, 1
0498  D009      	BRA	label37
049A  EE00F096  	LFSR 0x00,  writeVolum_0001E_1_byteVolume
049E  50E9      	MOVF FSR0L, W
04A0  519C      	MOVF writeVolum_0001E_45_i, W, 1
04A2  26E9      	ADDWF FSR0L, F
04A4  0E00      	MOVLW 0x00
04A6  6EEF      	MOVWF INDF0
04A8  2B9C      	INCF writeVolum_0001E_45_i, F, 1
04AA  D7F4      	BRA	label36
04AC            label37
04AC  5373      	MOVF gbl_iVolume, F, 1
04AE  E002      	BZ	label38
04B0  0574      	DECF gbl_iMute, W, 1
04B2  E110      	BNZ	label41
04B4            label38
04B4  6B9C      	CLRF writeVolum_0001E_50_i, 1
04B6            label39
04B6  0E06      	MOVLW 0x06
04B8  619C      	CPFSLT writeVolum_0001E_50_i, 1
04BA  D009      	BRA	label40
04BC  EE00F096  	LFSR 0x00,  writeVolum_0001E_1_byteVolume
04C0  50E9      	MOVF FSR0L, W
04C2  519C      	MOVF writeVolum_0001E_50_i, W, 1
04C4  26E9      	ADDWF FSR0L, F
04C6  0E00      	MOVLW 0x00
04C8  6EEF      	MOVWF INDF0
04CA  2B9C      	INCF writeVolum_0001E_50_i, F, 1
04CC  D7F4      	BRA	label39
04CE            label40
04CE  8880      	BSF gbl_porta,4
04D0  9A80      	BCF gbl_porta,5
04D2  D002      	BRA	label42
04D4            label41
04D4  9880      	BCF gbl_porta,4
04D6  8A80      	BSF gbl_porta,5
04D8            label42
04D8  9482      	BCF gbl_portc,2
04DA  6B95      	CLRF writeVolum_0001E_1_n, 1
04DC            label43
04DC  0E06      	MOVLW 0x06
04DE  6195      	CPFSLT writeVolum_0001E_1_n, 1
04E0  D016      	BRA	label48
04E2  0E80      	MOVLW 0x80
04E4  6F9C      	MOVWF writeVolum_0001E_64_cBitSelect, 1
04E6            label44
04E6  539C      	MOVF writeVolum_0001E_64_cBitSelect, F, 1
04E8  E010      	BZ	label47
04EA  9282      	BCF gbl_portc,1
04EC  EE00F096  	LFSR 0x00,  writeVolum_0001E_1_byteVolume
04F0  50E9      	MOVF FSR0L, W
04F2  5195      	MOVF writeVolum_0001E_1_n, W, 1
04F4  26E9      	ADDWF FSR0L, F
04F6  519C      	MOVF writeVolum_0001E_64_cBitSelect, W, 1
04F8  14EF      	ANDWF INDF0, W
04FA  E002      	BZ	label45
04FC  8082      	BSF gbl_portc,0
04FE  D001      	BRA	label46
0500            label45
0500  9082      	BCF gbl_portc,0
0502            label46
0502  8282      	BSF gbl_portc,1
0504  90D8      	BCF STATUS,C
0506  339C      	RRCF writeVolum_0001E_64_cBitSelect, F, 1
0508  D7EE      	BRA	label44
050A            label47
050A  2B95      	INCF writeVolum_0001E_1_n, F, 1
050C  D7E7      	BRA	label43
050E            label48
050E  8482      	BSF gbl_portc,2
0510  0012      	RETURN
0512            ; } writeVolumes function end

	ORG 0x00000512
0512            writeRelay_00000
0512            ; { writeRelay ; function begin
0512  0100      	MOVLB 0x00
0514  6B95      	CLRF writeRelay_00000_1_iRelay, 1
0516  5381      	MOVF gbl_iExtSurroundMode, F, 1
0518  E006      	BZ	label49
051A  537E      	MOVF gbl_iActiveInput, F, 1
051C  E104      	BNZ	label49
051E  0EBF      	MOVLW 0xBF
0520  1795      	ANDWF writeRelay_00000_1_iRelay, F, 1
0522  0E40      	MOVLW 0x40
0524  2795      	ADDWF writeRelay_00000_1_iRelay, F, 1
0526            label49
0526  537E      	MOVF gbl_iActiveInput, F, 1
0528  E00A      	BZ	label51
052A  057E      	DECF gbl_iActiveInput, W, 1
052C  E00D      	BZ	label52
052E  0E02      	MOVLW 0x02
0530  637E      	CPFSEQ gbl_iActiveInput, 1
0532  D001      	BRA	label50
0534  D00E      	BRA	label53
0536            label50
0536  0E03      	MOVLW 0x03
0538  637E      	CPFSEQ gbl_iActiveInput, 1
053A  D014      	BRA	label55
053C  D00F      	BRA	label54
053E            label51
053E  0E43      	MOVLW 0x43
0540  1795      	ANDWF writeRelay_00000_1_iRelay, F, 1
0542  0E20      	MOVLW 0x20
0544  2795      	ADDWF writeRelay_00000_1_iRelay, F, 1
0546  D00E      	BRA	label55
0548            label52
0548  0E43      	MOVLW 0x43
054A  1795      	ANDWF writeRelay_00000_1_iRelay, F, 1
054C  0E04      	MOVLW 0x04
054E  2795      	ADDWF writeRelay_00000_1_iRelay, F, 1
0550  D009      	BRA	label55
0552            label53
0552  0E43      	MOVLW 0x43
0554  1795      	ANDWF writeRelay_00000_1_iRelay, F, 1
0556  0E08      	MOVLW 0x08
0558  2795      	ADDWF writeRelay_00000_1_iRelay, F, 1
055A  D004      	BRA	label55
055C            label54
055C  0E43      	MOVLW 0x43
055E  1795      	ANDWF writeRelay_00000_1_iRelay, F, 1
0560  0E10      	MOVLW 0x10
0562  2795      	ADDWF writeRelay_00000_1_iRelay, F, 1
0564            label55
0564  517F      	MOVF gbl_iTrigger, W, 1
0566  0803      	SUBLW 0x03
0568  E302      	BNC	label56
056A  517F      	MOVF gbl_iTrigger, W, 1
056C  2795      	ADDWF writeRelay_00000_1_iRelay, F, 1
056E            label56
056E  677C      	TSTFSZ gbl_iPower, 1
0570  D001      	BRA	label57
0572  6B95      	CLRF writeRelay_00000_1_iRelay, 1
0574            label57
0574  9484      	BCF gbl_porte,2
0576  0E01      	MOVLW 0x01
0578  6F96      	MOVWF writeRelay_00000_2_cBitSelect, 1
057A            label58
057A  5396      	MOVF writeRelay_00000_2_cBitSelect, F, 1
057C  E00B      	BZ	label61
057E  5196      	MOVF writeRelay_00000_2_cBitSelect, W, 1
0580  1595      	ANDWF writeRelay_00000_1_iRelay, W, 1
0582  E002      	BZ	label59
0584  8084      	BSF gbl_porte,0
0586  D001      	BRA	label60
0588            label59
0588  9084      	BCF gbl_porte,0
058A            label60
058A  8284      	BSF gbl_porte,1
058C  9284      	BCF gbl_porte,1
058E  90D8      	BCF STATUS,C
0590  3796      	RLCF writeRelay_00000_2_cBitSelect, F, 1
0592  D7F3      	BRA	label58
0594            label61
0594  8484      	BSF gbl_porte,2
0596  0012      	RETURN
0598            ; } writeRelay function end

	ORG 0x00000598
0598            showVolume_00000
0598            ; { showVolume ; function begin
0598  0100      	MOVLB 0x00
059A  6B95      	CLRF showVolume_00000_1_iModulus, 1
059C  6B96      	CLRF showVolume_00000_1_iModulus+D'1', 1
059E  0E5F      	MOVLW 0x5F
05A0  6F97      	MOVWF showVolume_00000_1_cGain, 1
05A2  6B98      	CLRF showVolume_00000_1_cGainDe_0001F, 1
05A4  6B68      	CLRF gbl_ledData2, 1
05A6  6B69      	CLRF gbl_ledData2+D'1', 1
05A8  5374      	MOVF gbl_iMute, F, 1
05AA  E003      	BZ	label62
05AC  EC03F001  	CALL printMute_00000
05B0  D062      	BRA	label72
05B2            label62
05B2  0E02      	MOVLW 0x02
05B4  6F86      	MOVWF gbl_ledCurrentLine, 1
05B6  0EC0      	MOVLW 0xC0
05B8  6373      	CPFSEQ gbl_iVolume, 1
05BA  D002      	BRA	label63
05BC  6B97      	CLRF showVolume_00000_1_cGain, 1
05BE  D01E      	BRA	label65
05C0            label63
05C0  0EC0      	MOVLW 0xC0
05C2  6573      	CPFSGT gbl_iVolume, 1
05C4  D009      	BRA	label64
05C6  5173      	MOVF gbl_iVolume, W, 1
05C8  08FF      	SUBLW 0xFF
05CA  6F9B      	MOVWF CompTempVar662, 1
05CC  90D8      	BCF STATUS,C
05CE  339B      	RRCF CompTempVar662, F, 1
05D0  519B      	MOVF CompTempVar662, W, 1
05D2  081F      	SUBLW 0x1F
05D4  6F97      	MOVWF showVolume_00000_1_cGain, 1
05D6  D012      	BRA	label65
05D8            label64
05D8  0EC0      	MOVLW 0xC0
05DA  6173      	CPFSLT gbl_iVolume, 1
05DC  D00F      	BRA	label65
05DE  5173      	MOVF gbl_iVolume, W, 1
05E0  08FE      	SUBLW 0xFE
05E2  6F9B      	MOVWF CompTempVar664, 1
05E4  90D8      	BCF STATUS,C
05E6  339B      	RRCF CompTempVar664, F, 1
05E8  0E1F      	MOVLW 0x1F
05EA  5D9B      	SUBWF CompTempVar664, W, 1
05EC  6F97      	MOVWF showVolume_00000_1_cGain, 1
05EE  0E01      	MOVLW 0x01
05F0  6F87      	MOVWF gbl_ledCurrentCol, 1
05F2  0E2D      	MOVLW 0x2D
05F4  6F9B      	MOVWF ledChar_00000_arg_iChar, 1
05F6  6B9C      	CLRF ledChar_00000_arg_iHasDot, 1
05F8  ECE0F000  	CALL ledChar_00000
05FC            label65
05FC  A173      	BTFSS gbl_iVolume,0, 1
05FE  D002      	BRA	label66
0600  0E05      	MOVLW 0x05
0602  6F98      	MOVWF showVolume_00000_1_cGainDe_0001F, 1
0604            label66
0604  6B99      	CLRF showVolume_00000_7_cDig1, 1
0606  6B9A      	CLRF showVolume_00000_7_cDig0, 1
0608            label67
0608  0E0A      	MOVLW 0x0A
060A  6197      	CPFSLT showVolume_00000_1_cGain, 1
060C  D001      	BRA	label68
060E  D005      	BRA	label69
0610            label68
0610  0E0A      	MOVLW 0x0A
0612  5D97      	SUBWF showVolume_00000_1_cGain, W, 1
0614  6F97      	MOVWF showVolume_00000_1_cGain, 1
0616  2B99      	INCF showVolume_00000_7_cDig1, F, 1
0618  D7F7      	BRA	label67
061A            label69
061A  5197      	MOVF showVolume_00000_1_cGain, W, 1
061C  6F9A      	MOVWF showVolume_00000_7_cDig0, 1
061E  0E02      	MOVLW 0x02
0620  6F87      	MOVWF gbl_ledCurrentCol, 1
0622  5399      	MOVF showVolume_00000_7_cDig1, F, 1
0624  E106      	BNZ	label70
0626  0E20      	MOVLW 0x20
0628  6F9B      	MOVWF ledChar_00000_arg_iChar, 1
062A  6B9C      	CLRF ledChar_00000_arg_iHasDot, 1
062C  ECE0F000  	CALL ledChar_00000
0630  D006      	BRA	label71
0632            label70
0632  0E30      	MOVLW 0x30
0634  2599      	ADDWF showVolume_00000_7_cDig1, W, 1
0636  6F9B      	MOVWF ledChar_00000_arg_iChar, 1
0638  6B9C      	CLRF ledChar_00000_arg_iHasDot, 1
063A  ECE0F000  	CALL ledChar_00000
063E            label71
063E  0E30      	MOVLW 0x30
0640  259A      	ADDWF showVolume_00000_7_cDig0, W, 1
0642  6F9B      	MOVWF ledChar_00000_arg_iChar, 1
0644  0E01      	MOVLW 0x01
0646  6F9C      	MOVWF ledChar_00000_arg_iHasDot, 1
0648  ECE0F000  	CALL ledChar_00000
064C  0E30      	MOVLW 0x30
064E  2598      	ADDWF showVolume_00000_1_cGainDe_0001F, W, 1
0650  6F9B      	MOVWF ledChar_00000_arg_iChar, 1
0652  6B9C      	CLRF ledChar_00000_arg_iHasDot, 1
0654  ECE0F000  	CALL ledChar_00000
0658  0E20      	MOVLW 0x20
065A  6F9B      	MOVWF ledChar_00000_arg_iChar, 1
065C  6B9C      	CLRF ledChar_00000_arg_iHasDot, 1
065E  ECE0F000  	CALL ledChar_00000
0662  0E64      	MOVLW 0x64
0664  6F9B      	MOVWF ledChar_00000_arg_iChar, 1
0666  6B9C      	CLRF ledChar_00000_arg_iHasDot, 1
0668  ECE0F000  	CALL ledChar_00000
066C  0E62      	MOVLW 0x62
066E  6F9B      	MOVWF ledChar_00000_arg_iChar, 1
0670  6B9C      	CLRF ledChar_00000_arg_iHasDot, 1
0672  ECE0F000  	CALL ledChar_00000
0676            label72
0676  5373      	MOVF gbl_iVolume, F, 1
0678  E002      	BZ	label73
067A  0574      	DECF gbl_iMute, W, 1
067C  E103      	BNZ	label74
067E            label73
067E  9A80      	BCF gbl_porta,5
0680  8880      	BSF gbl_porta,4
0682  0012      	RETURN
0684            label74
0684  8A80      	BSF gbl_porta,5
0686  9880      	BCF gbl_porta,4
0688  0012      	RETURN
068A            ; } showVolume function end

	ORG 0x0000068A
068A            showInput_00000
068A            ; { showInput ; function begin
068A  0100      	MOVLB 0x00
068C  537E      	MOVF gbl_iActiveInput, F, 1
068E  E00A      	BZ	label76
0690  057E      	DECF gbl_iActiveInput, W, 1
0692  E021      	BZ	label77
0694  0E02      	MOVLW 0x02
0696  637E      	CPFSEQ gbl_iActiveInput, 1
0698  D001      	BRA	label75
069A  D036      	BRA	label78
069C            label75
069C  0E03      	MOVLW 0x03
069E  637E      	CPFSEQ gbl_iActiveInput, 1
06A0  0012      	RETURN
06A2  D045      	BRA	label79
06A4            label76
06A4  0E01      	MOVLW 0x01
06A6  6F99      	MOVWF ledPrint_00000_arg_iLine, 1
06A8  0E20      	MOVLW 0x20
06AA  6FA0      	MOVWF CompTempVar651+D'4', 1
06AC  0E31      	MOVLW 0x31
06AE  6FA2      	MOVWF CompTempVar651+D'6', 1
06B0  0E35      	MOVLW 0x35
06B2  6FA1      	MOVWF CompTempVar651+D'5', 1
06B4  0E45      	MOVLW 0x45
06B6  6F9D      	MOVWF CompTempVar651+D'1', 1
06B8  6F9F      	MOVWF CompTempVar651+D'3', 1
06BA  0E4C      	MOVLW 0x4C
06BC  6F9E      	MOVWF CompTempVar651+D'2', 1
06BE  0E54      	MOVLW 0x54
06C0  6F9C      	MOVWF CompTempVar651, 1
06C2  6BA3      	CLRF CompTempVar651+D'7', 1
06C4  0E00      	MOVLW HIGH(CompTempVar651+D'0')
06C6  6F9B      	MOVWF ledPrint_00000_arg_s+D'1', 1
06C8  0E9C      	MOVLW LOW(CompTempVar651+D'0')
06CA  6F9A      	MOVWF ledPrint_00000_arg_s, 1
06CC  EC81F000  	CALL ledPrint_00000
06D0  0EDB      	MOVLW 0xDB
06D2  6F65      	MOVWF gbl_ledData1+D'5', 1
06D4  0012      	RETURN
06D6            label77
06D6  0E01      	MOVLW 0x01
06D8  6F99      	MOVWF ledPrint_00000_arg_iLine, 1
06DA  0E20      	MOVLW 0x20
06DC  6F9F      	MOVWF CompTempVar654+D'3', 1
06DE  0E43      	MOVLW 0x43
06E0  6F9C      	MOVWF CompTempVar654, 1
06E2  6FA0      	MOVWF CompTempVar654+D'4', 1
06E4  0E61      	MOVLW 0x61
06E6  6FA1      	MOVWF CompTempVar654+D'5', 1
06E8  0E68      	MOVLW 0x68
06EA  6F9D      	MOVWF CompTempVar654+D'1', 1
06EC  0E72      	MOVLW 0x72
06EE  6F9E      	MOVWF CompTempVar654+D'2', 1
06F0  0E73      	MOVLW 0x73
06F2  6FA2      	MOVWF CompTempVar654+D'6', 1
06F4  0E74      	MOVLW 0x74
06F6  6FA3      	MOVWF CompTempVar654+D'7', 1
06F8  6BA4      	CLRF CompTempVar654+D'8', 1
06FA  0E00      	MOVLW HIGH(CompTempVar654+D'0')
06FC  6F9B      	MOVWF ledPrint_00000_arg_s+D'1', 1
06FE  0E9C      	MOVLW LOW(CompTempVar654+D'0')
0700  6F9A      	MOVWF ledPrint_00000_arg_s, 1
0702  EC81F000  	CALL ledPrint_00000
0706  0012      	RETURN
0708            label78
0708  0E01      	MOVLW 0x01
070A  6F99      	MOVWF ledPrint_00000_arg_iLine, 1
070C  0E50      	MOVLW 0x50
070E  6F9C      	MOVWF CompTempVar656, 1
0710  0E68      	MOVLW 0x68
0712  6F9D      	MOVWF CompTempVar656+D'1', 1
0714  0E6E      	MOVLW 0x6E
0716  6F9F      	MOVWF CompTempVar656+D'3', 1
0718  0E6F      	MOVLW 0x6F
071A  6F9E      	MOVWF CompTempVar656+D'2', 1
071C  6FA0      	MOVWF CompTempVar656+D'4', 1
071E  6BA1      	CLRF CompTempVar656+D'5', 1
0720  0E00      	MOVLW HIGH(CompTempVar656+D'0')
0722  6F9B      	MOVWF ledPrint_00000_arg_s+D'1', 1
0724  0E9C      	MOVLW LOW(CompTempVar656+D'0')
0726  6F9A      	MOVWF ledPrint_00000_arg_s, 1
0728  EC81F000  	CALL ledPrint_00000
072C  0012      	RETURN
072E            label79
072E  0E01      	MOVLW 0x01
0730  6F99      	MOVWF ledPrint_00000_arg_iLine, 1
0732  0E41      	MOVLW 0x41
0734  6F9C      	MOVWF CompTempVar658, 1
0736  0E4C      	MOVLW 0x4C
0738  6F9D      	MOVWF CompTempVar658+D'1', 1
073A  0E74      	MOVLW 0x74
073C  6F9E      	MOVWF CompTempVar658+D'2', 1
073E  6B9F      	CLRF CompTempVar658+D'3', 1
0740  0E00      	MOVLW HIGH(CompTempVar658+D'0')
0742  6F9B      	MOVWF ledPrint_00000_arg_s+D'1', 1
0744  0E9C      	MOVLW LOW(CompTempVar658+D'0')
0746  6F9A      	MOVWF ledPrint_00000_arg_s, 1
0748  EC81F000  	CALL ledPrint_00000
074C  0012      	RETURN
074E            ; } showInput function end

	ORG 0x0000074E
074E            showFault_00000
074E            ; { showFault ; function begin
074E  0E01      	MOVLW 0x01
0750  0100      	MOVLB 0x00
0752  6F99      	MOVWF ledPrint_00000_arg_iLine, 1
0754  0E46      	MOVLW 0x46
0756  6F9C      	MOVWF CompTempVar666, 1
0758  0E41      	MOVLW 0x41
075A  6F9D      	MOVWF CompTempVar666+D'1', 1
075C  0E55      	MOVLW 0x55
075E  6F9E      	MOVWF CompTempVar666+D'2', 1
0760  0E4C      	MOVLW 0x4C
0762  6F9F      	MOVWF CompTempVar666+D'3', 1
0764  0E74      	MOVLW 0x74
0766  6FA0      	MOVWF CompTempVar666+D'4', 1
0768  6BA1      	CLRF CompTempVar666+D'5', 1
076A  0E00      	MOVLW HIGH(CompTempVar666+D'0')
076C  6F9B      	MOVWF ledPrint_00000_arg_s+D'1', 1
076E  0E9C      	MOVLW LOW(CompTempVar666+D'0')
0770  6F9A      	MOVWF ledPrint_00000_arg_s, 1
0772  EC81F000  	CALL ledPrint_00000
0776  EC03F001  	CALL printMute_00000
077A  8680      	BSF gbl_porta,3
077C  9A80      	BCF gbl_porta,5
077E  0012      	RETURN
0780            ; } showFault function end

	ORG 0x00000780
0780            ledOn_00000
0780            ; { ledOn ; function begin
0780  9681      	BCF gbl_portb,3
0782  9881      	BCF gbl_portb,4
0784  8A81      	BSF gbl_portb,5
0786  9E83      	BCF gbl_portd,7
0788  0EFA      	MOVLW 0xFA
078A  0100      	MOVLB 0x00
078C  6F95      	MOVWF delay_ms_00000_arg_del, 1
078E  EC10F000  	CALL delay_ms_00000
0792  EC1DF001  	CALL ledSetup_00000
0796  EC54F000  	CALL ledLatchDo_0001C
079A  0E0C      	MOVLW 0x0C
079C  6F9B      	MOVWF ledSendCha_0001D_arg_iData, 1
079E  EC3BF000  	CALL ledSendCha_0001D
07A2  0E01      	MOVLW 0x01
07A4  6F9B      	MOVWF ledSendCha_0001D_arg_iData, 1
07A6  EC3BF000  	CALL ledSendCha_0001D
07AA  0E0C      	MOVLW 0x0C
07AC  6F9B      	MOVWF ledSendCha_0001D_arg_iData, 1
07AE  EC3BF000  	CALL ledSendCha_0001D
07B2  0E01      	MOVLW 0x01
07B4  6F9B      	MOVWF ledSendCha_0001D_arg_iData, 1
07B6  EC3BF000  	CALL ledSendCha_0001D
07BA  EC4BF000  	CALL ledLatchUp_00000
07BE  0EFA      	MOVLW 0xFA
07C0  6F9B      	MOVWF delay_us_00000_arg_del, 1
07C2  EC06F000  	CALL delay_us_00000
07C6  0012      	RETURN
07C8            ; } ledOn function end

	ORG 0x000007C8
07C8            ledOff_00000
07C8            ; { ledOff ; function begin
07C8  EC54F000  	CALL ledLatchDo_0001C
07CC  0E0C      	MOVLW 0x0C
07CE  0100      	MOVLB 0x00
07D0  6F9B      	MOVWF ledSendCha_0001D_arg_iData, 1
07D2  EC3BF000  	CALL ledSendCha_0001D
07D6  6B9B      	CLRF ledSendCha_0001D_arg_iData, 1
07D8  EC3BF000  	CALL ledSendCha_0001D
07DC  0E0C      	MOVLW 0x0C
07DE  6F9B      	MOVWF ledSendCha_0001D_arg_iData, 1
07E0  EC3BF000  	CALL ledSendCha_0001D
07E4  6B9B      	CLRF ledSendCha_0001D_arg_iData, 1
07E6  EC3BF000  	CALL ledSendCha_0001D
07EA  EC4BF000  	CALL ledLatchUp_00000
07EE  8E83      	BSF gbl_portd,7
07F0  0E64      	MOVLW 0x64
07F2  6F95      	MOVWF delay_ms_00000_arg_del, 1
07F4  EC10F000  	CALL delay_ms_00000
07F8  0012      	RETURN
07FA            ; } ledOff function end

	ORG 0x000007FA
07FA            functionVa_00027
07FA            ; { functionValueLower ; function begin
07FA  5194      	MOVF functionVa_00027_arg_iValue, W, 1
07FC  90D8      	BCF STATUS,C
07FE  BF94      	BTFSC functionVa_00027_arg_iValue,7, 1
0800  08E0      	SUBLW 0xE0
0802  A0D8      	BTFSS STATUS,C
0804  0794      	DECF functionVa_00027_arg_iValue, F, 1
0806  5194      	MOVF functionVa_00027_arg_iValue, W, 1
0808  6F95      	MOVWF CompTempVarRet710, 1
080A  0012      	RETURN
080C            ; } functionValueLower function end

	ORG 0x0000080C
080C            functionVa_00025
080C            ; { functionValueRaise ; function begin
080C  0E20      	MOVLW 0x20
080E  6194      	CPFSLT functionVa_00025_arg_iValue, 1
0810  D001      	BRA	label80
0812  D001      	BRA	label81
0814            label80
0814  BF94      	BTFSC functionVa_00025_arg_iValue,7, 1
0816            label81
0816  2B94      	INCF functionVa_00025_arg_iValue, F, 1
0818  5194      	MOVF functionVa_00025_arg_iValue, W, 1
081A  6F95      	MOVWF CompTempVarRet709, 1
081C  0012      	RETURN
081E            ; } functionValueRaise function end

	ORG 0x0000081E
081E            functionDi_00022
081E            ; { functionDisplay ; function begin
081E  0100      	MOVLB 0x00
0820  0582      	DECF gbl_iFunctionMode, W, 1
0822  E020      	BZ	label89
0824  0E02      	MOVLW 0x02
0826  6382      	CPFSEQ gbl_iFunctionMode, 1
0828  D001      	BRA	label82
082A  D036      	BRA	label90
082C            label82
082C  0E03      	MOVLW 0x03
082E  6382      	CPFSEQ gbl_iFunctionMode, 1
0830  D001      	BRA	label83
0832  D048      	BRA	label91
0834            label83
0834  0E04      	MOVLW 0x04
0836  6382      	CPFSEQ gbl_iFunctionMode, 1
0838  D001      	BRA	label84
083A  D061      	BRA	label92
083C            label84
083C  0E05      	MOVLW 0x05
083E  6382      	CPFSEQ gbl_iFunctionMode, 1
0840  D001      	BRA	label85
0842  D07B      	BRA	label93
0844            label85
0844  0E06      	MOVLW 0x06
0846  6382      	CPFSEQ gbl_iFunctionMode, 1
0848  D001      	BRA	label86
084A  D08C      	BRA	label94
084C            label86
084C  0E07      	MOVLW 0x07
084E  6382      	CPFSEQ gbl_iFunctionMode, 1
0850  D001      	BRA	label87
0852  D0BC      	BRA	label96
0854            label87
0854  0E08      	MOVLW 0x08
0856  6382      	CPFSEQ gbl_iFunctionMode, 1
0858  D001      	BRA	label88
085A  D0EC      	BRA	label98
085C            label88
085C  0E09      	MOVLW 0x09
085E  6382      	CPFSEQ gbl_iFunctionMode, 1
0860  D156      	BRA	label102
0862  D122      	BRA	label100
0864            label89
0864  0E01      	MOVLW 0x01
0866  6F99      	MOVWF ledPrint_00000_arg_iLine, 1
0868  0E43      	MOVLW 0x43
086A  6F9C      	MOVWF CompTempVar670, 1
086C  0E65      	MOVLW 0x65
086E  6F9D      	MOVWF CompTempVar670+D'1', 1
0870  6FA1      	MOVWF CompTempVar670+D'5', 1
0872  0E6E      	MOVLW 0x6E
0874  6F9E      	MOVWF CompTempVar670+D'2', 1
0876  0E72      	MOVLW 0x72
0878  6FA0      	MOVWF CompTempVar670+D'4', 1
087A  0E74      	MOVLW 0x74
087C  6F9F      	MOVWF CompTempVar670+D'3', 1
087E  6BA2      	CLRF CompTempVar670+D'6', 1
0880  0E00      	MOVLW HIGH(CompTempVar670+D'0')
0882  6F9B      	MOVWF ledPrint_00000_arg_s+D'1', 1
0884  0E9C      	MOVLW LOW(CompTempVar670+D'0')
0886  6F9A      	MOVWF ledPrint_00000_arg_s, 1
0888  EC81F000  	CALL ledPrint_00000
088C  517A      	MOVF gbl_iCentreAdjust, W, 1
088E  6F94      	MOVWF functionVa_00023_arg_iValue, 1
0890  6B95      	CLRF functionVa_00023_arg_isBal, 1
0892  EC6AF001  	CALL functionVa_00023
0896  D13B      	BRA	label102
0898            label90
0898  0E01      	MOVLW 0x01
089A  6F99      	MOVWF ledPrint_00000_arg_iLine, 1
089C  0E61      	MOVLW 0x61
089E  6F9E      	MOVWF CompTempVar672+D'2', 1
08A0  0E65      	MOVLW 0x65
08A2  6F9D      	MOVWF CompTempVar672+D'1', 1
08A4  0E72      	MOVLW 0x72
08A6  6F9C      	MOVWF CompTempVar672, 1
08A8  6F9F      	MOVWF CompTempVar672+D'3', 1
08AA  6BA0      	CLRF CompTempVar672+D'4', 1
08AC  0E00      	MOVLW HIGH(CompTempVar672+D'0')
08AE  6F9B      	MOVWF ledPrint_00000_arg_s+D'1', 1
08B0  0E9C      	MOVLW LOW(CompTempVar672+D'0')
08B2  6F9A      	MOVWF ledPrint_00000_arg_s, 1
08B4  EC81F000  	CALL ledPrint_00000
08B8  5179      	MOVF gbl_iRearAdjust, W, 1
08BA  6F94      	MOVWF functionVa_00023_arg_iValue, 1
08BC  6B95      	CLRF functionVa_00023_arg_isBal, 1
08BE  EC6AF001  	CALL functionVa_00023
08C2  D125      	BRA	label102
08C4            label91
08C4  0E01      	MOVLW 0x01
08C6  6F99      	MOVWF ledPrint_00000_arg_iLine, 1
08C8  0E61      	MOVLW 0x61
08CA  6F9D      	MOVWF CompTempVar674+D'1', 1
08CC  6F9F      	MOVWF CompTempVar674+D'3', 1
08CE  0E62      	MOVLW 0x62
08D0  6F9C      	MOVWF CompTempVar674, 1
08D2  0E63      	MOVLW 0x63
08D4  6FA1      	MOVWF CompTempVar674+D'5', 1
08D6  0E65      	MOVLW 0x65
08D8  6FA2      	MOVWF CompTempVar674+D'6', 1
08DA  0E6C      	MOVLW 0x6C
08DC  6F9E      	MOVWF CompTempVar674+D'2', 1
08DE  0E6E      	MOVLW 0x6E
08E0  6FA0      	MOVWF CompTempVar674+D'4', 1
08E2  6BA3      	CLRF CompTempVar674+D'7', 1
08E4  0E00      	MOVLW HIGH(CompTempVar674+D'0')
08E6  6F9B      	MOVWF ledPrint_00000_arg_s+D'1', 1
08E8  0E9C      	MOVLW LOW(CompTempVar674+D'0')
08EA  6F9A      	MOVWF ledPrint_00000_arg_s, 1
08EC  EC81F000  	CALL ledPrint_00000
08F0  5177      	MOVF gbl_iFrontBalance, W, 1
08F2  6F94      	MOVWF functionVa_00023_arg_iValue, 1
08F4  0E01      	MOVLW 0x01
08F6  6F95      	MOVWF functionVa_00023_arg_isBal, 1
08F8  EC6AF001  	CALL functionVa_00023
08FC  D108      	BRA	label102
08FE            label92
08FE  0E01      	MOVLW 0x01
0900  6F99      	MOVWF ledPrint_00000_arg_iLine, 1
0902  0E20      	MOVLW 0x20
0904  6FA0      	MOVWF CompTempVar676+D'4', 1
0906  0E61      	MOVLW 0x61
0908  6F9E      	MOVWF CompTempVar676+D'2', 1
090A  6FA2      	MOVWF CompTempVar676+D'6', 1
090C  0E62      	MOVLW 0x62
090E  6FA1      	MOVWF CompTempVar676+D'5', 1
0910  0E65      	MOVLW 0x65
0912  6F9D      	MOVWF CompTempVar676+D'1', 1
0914  0E6C      	MOVLW 0x6C
0916  6FA3      	MOVWF CompTempVar676+D'7', 1
0918  0E72      	MOVLW 0x72
091A  6F9C      	MOVWF CompTempVar676, 1
091C  6F9F      	MOVWF CompTempVar676+D'3', 1
091E  6BA4      	CLRF CompTempVar676+D'8', 1
0920  0E00      	MOVLW HIGH(CompTempVar676+D'0')
0922  6F9B      	MOVWF ledPrint_00000_arg_s+D'1', 1
0924  0E9C      	MOVLW LOW(CompTempVar676+D'0')
0926  6F9A      	MOVWF ledPrint_00000_arg_s, 1
0928  EC81F000  	CALL ledPrint_00000
092C  5178      	MOVF gbl_iRearBalance, W, 1
092E  6F94      	MOVWF functionVa_00023_arg_iValue, 1
0930  0E01      	MOVLW 0x01
0932  6F95      	MOVWF functionVa_00023_arg_isBal, 1
0934  EC6AF001  	CALL functionVa_00023
0938  D0EA      	BRA	label102
093A            label93
093A  0E01      	MOVLW 0x01
093C  6F99      	MOVWF ledPrint_00000_arg_iLine, 1
093E  0E53      	MOVLW 0x53
0940  6F9C      	MOVWF CompTempVar678, 1
0942  0E75      	MOVLW 0x75
0944  6F9D      	MOVWF CompTempVar678+D'1', 1
0946  0E62      	MOVLW 0x62
0948  6F9E      	MOVWF CompTempVar678+D'2', 1
094A  6B9F      	CLRF CompTempVar678+D'3', 1
094C  0E00      	MOVLW HIGH(CompTempVar678+D'0')
094E  6F9B      	MOVWF ledPrint_00000_arg_s+D'1', 1
0950  0E9C      	MOVLW LOW(CompTempVar678+D'0')
0952  6F9A      	MOVWF ledPrint_00000_arg_s, 1
0954  EC81F000  	CALL ledPrint_00000
0958  517B      	MOVF gbl_iSubAdjust, W, 1
095A  6F94      	MOVWF functionVa_00023_arg_iValue, 1
095C  6B95      	CLRF functionVa_00023_arg_isBal, 1
095E  EC6AF001  	CALL functionVa_00023
0962  D0D5      	BRA	label102
0964            label94
0964  0E01      	MOVLW 0x01
0966  6F99      	MOVWF ledPrint_00000_arg_iLine, 1
0968  0E54      	MOVLW 0x54
096A  6F9C      	MOVWF CompTempVar680, 1
096C  0E72      	MOVLW 0x72
096E  6F9D      	MOVWF CompTempVar680+D'1', 1
0970  0E69      	MOVLW 0x69
0972  6F9E      	MOVWF CompTempVar680+D'2', 1
0974  0E67      	MOVLW 0x67
0976  6F9F      	MOVWF CompTempVar680+D'3', 1
0978  0E20      	MOVLW 0x20
097A  6FA0      	MOVWF CompTempVar680+D'4', 1
097C  0E31      	MOVLW 0x31
097E  6FA1      	MOVWF CompTempVar680+D'5', 1
0980  6BA2      	CLRF CompTempVar680+D'6', 1
0982  0E00      	MOVLW HIGH(CompTempVar680+D'0')
0984  6F9B      	MOVWF ledPrint_00000_arg_s+D'1', 1
0986  0E9C      	MOVLW LOW(CompTempVar680+D'0')
0988  6F9A      	MOVWF ledPrint_00000_arg_s, 1
098A  EC81F000  	CALL ledPrint_00000
098E  A17F      	BTFSS gbl_iTrigger,0, 1
0990  D00E      	BRA	label95
0992  0E02      	MOVLW 0x02
0994  6F99      	MOVWF ledPrint_00000_arg_iLine, 1
0996  0E4F      	MOVLW 0x4F
0998  6F9C      	MOVWF CompTempVar682, 1
099A  0E6E      	MOVLW 0x6E
099C  6F9D      	MOVWF CompTempVar682+D'1', 1
099E  6B9E      	CLRF CompTempVar682+D'2', 1
09A0  0E00      	MOVLW HIGH(CompTempVar682+D'0')
09A2  6F9B      	MOVWF ledPrint_00000_arg_s+D'1', 1
09A4  0E9C      	MOVLW LOW(CompTempVar682+D'0')
09A6  6F9A      	MOVWF ledPrint_00000_arg_s, 1
09A8  EC81F000  	CALL ledPrint_00000
09AC  D0B0      	BRA	label102
09AE            label95
09AE  0E02      	MOVLW 0x02
09B0  6F99      	MOVWF ledPrint_00000_arg_iLine, 1
09B2  0E4F      	MOVLW 0x4F
09B4  6F9C      	MOVWF CompTempVar684, 1
09B6  0E66      	MOVLW 0x66
09B8  6F9D      	MOVWF CompTempVar684+D'1', 1
09BA  6F9E      	MOVWF CompTempVar684+D'2', 1
09BC  6B9F      	CLRF CompTempVar684+D'3', 1
09BE  0E00      	MOVLW HIGH(CompTempVar684+D'0')
09C0  6F9B      	MOVWF ledPrint_00000_arg_s+D'1', 1
09C2  0E9C      	MOVLW LOW(CompTempVar684+D'0')
09C4  6F9A      	MOVWF ledPrint_00000_arg_s, 1
09C6  EC81F000  	CALL ledPrint_00000
09CA  D0A1      	BRA	label102
09CC            label96
09CC  0E01      	MOVLW 0x01
09CE  6F99      	MOVWF ledPrint_00000_arg_iLine, 1
09D0  0E54      	MOVLW 0x54
09D2  6F9C      	MOVWF CompTempVar686, 1
09D4  0E72      	MOVLW 0x72
09D6  6F9D      	MOVWF CompTempVar686+D'1', 1
09D8  0E69      	MOVLW 0x69
09DA  6F9E      	MOVWF CompTempVar686+D'2', 1
09DC  0E67      	MOVLW 0x67
09DE  6F9F      	MOVWF CompTempVar686+D'3', 1
09E0  0E20      	MOVLW 0x20
09E2  6FA0      	MOVWF CompTempVar686+D'4', 1
09E4  0E32      	MOVLW 0x32
09E6  6FA1      	MOVWF CompTempVar686+D'5', 1
09E8  6BA2      	CLRF CompTempVar686+D'6', 1
09EA  0E00      	MOVLW HIGH(CompTempVar686+D'0')
09EC  6F9B      	MOVWF ledPrint_00000_arg_s+D'1', 1
09EE  0E9C      	MOVLW LOW(CompTempVar686+D'0')
09F0  6F9A      	MOVWF ledPrint_00000_arg_s, 1
09F2  EC81F000  	CALL ledPrint_00000
09F6  A37F      	BTFSS gbl_iTrigger,1, 1
09F8  D00E      	BRA	label97
09FA  0E02      	MOVLW 0x02
09FC  6F99      	MOVWF ledPrint_00000_arg_iLine, 1
09FE  0E4F      	MOVLW 0x4F
0A00  6F9C      	MOVWF CompTempVar688, 1
0A02  0E6E      	MOVLW 0x6E
0A04  6F9D      	MOVWF CompTempVar688+D'1', 1
0A06  6B9E      	CLRF CompTempVar688+D'2', 1
0A08  0E00      	MOVLW HIGH(CompTempVar688+D'0')
0A0A  6F9B      	MOVWF ledPrint_00000_arg_s+D'1', 1
0A0C  0E9C      	MOVLW LOW(CompTempVar688+D'0')
0A0E  6F9A      	MOVWF ledPrint_00000_arg_s, 1
0A10  EC81F000  	CALL ledPrint_00000
0A14  D07C      	BRA	label102
0A16            label97
0A16  0E02      	MOVLW 0x02
0A18  6F99      	MOVWF ledPrint_00000_arg_iLine, 1
0A1A  0E4F      	MOVLW 0x4F
0A1C  6F9C      	MOVWF CompTempVar690, 1
0A1E  0E66      	MOVLW 0x66
0A20  6F9D      	MOVWF CompTempVar690+D'1', 1
0A22  6F9E      	MOVWF CompTempVar690+D'2', 1
0A24  6B9F      	CLRF CompTempVar690+D'3', 1
0A26  0E00      	MOVLW HIGH(CompTempVar690+D'0')
0A28  6F9B      	MOVWF ledPrint_00000_arg_s+D'1', 1
0A2A  0E9C      	MOVLW LOW(CompTempVar690+D'0')
0A2C  6F9A      	MOVWF ledPrint_00000_arg_s, 1
0A2E  EC81F000  	CALL ledPrint_00000
0A32  D06D      	BRA	label102
0A34            label98
0A34  0E01      	MOVLW 0x01
0A36  6F99      	MOVWF ledPrint_00000_arg_iLine, 1
0A38  0E35      	MOVLW 0x35
0A3A  6F9C      	MOVWF CompTempVar692, 1
0A3C  0E31      	MOVLW 0x31
0A3E  6F9D      	MOVWF CompTempVar692+D'1', 1
0A40  0E20      	MOVLW 0x20
0A42  6F9E      	MOVWF CompTempVar692+D'2', 1
0A44  0E53      	MOVLW 0x53
0A46  6F9F      	MOVWF CompTempVar692+D'3', 1
0A48  0E6F      	MOVLW 0x6F
0A4A  6FA0      	MOVWF CompTempVar692+D'4', 1
0A4C  0E75      	MOVLW 0x75
0A4E  6FA1      	MOVWF CompTempVar692+D'5', 1
0A50  0E6E      	MOVLW 0x6E
0A52  6FA2      	MOVWF CompTempVar692+D'6', 1
0A54  0E64      	MOVLW 0x64
0A56  6FA3      	MOVWF CompTempVar692+D'7', 1
0A58  6BA4      	CLRF CompTempVar692+D'8', 1
0A5A  0E00      	MOVLW HIGH(CompTempVar692+D'0')
0A5C  6F9B      	MOVWF ledPrint_00000_arg_s+D'1', 1
0A5E  0E9C      	MOVLW LOW(CompTempVar692+D'0')
0A60  6F9A      	MOVWF ledPrint_00000_arg_s, 1
0A62  EC81F000  	CALL ledPrint_00000
0A66  0EDB      	MOVLW 0xDB
0A68  6F60      	MOVWF gbl_ledData1, 1
0A6A  5381      	MOVF gbl_iExtSurroundMode, F, 1
0A6C  E00E      	BZ	label99
0A6E  0E02      	MOVLW 0x02
0A70  6F99      	MOVWF ledPrint_00000_arg_iLine, 1
0A72  0E4F      	MOVLW 0x4F
0A74  6F9C      	MOVWF CompTempVar695, 1
0A76  0E6E      	MOVLW 0x6E
0A78  6F9D      	MOVWF CompTempVar695+D'1', 1
0A7A  6B9E      	CLRF CompTempVar695+D'2', 1
0A7C  0E00      	MOVLW HIGH(CompTempVar695+D'0')
0A7E  6F9B      	MOVWF ledPrint_00000_arg_s+D'1', 1
0A80  0E9C      	MOVLW LOW(CompTempVar695+D'0')
0A82  6F9A      	MOVWF ledPrint_00000_arg_s, 1
0A84  EC81F000  	CALL ledPrint_00000
0A88  D042      	BRA	label102
0A8A            label99
0A8A  0E02      	MOVLW 0x02
0A8C  6F99      	MOVWF ledPrint_00000_arg_iLine, 1
0A8E  0E4F      	MOVLW 0x4F
0A90  6F9C      	MOVWF CompTempVar697, 1
0A92  0E66      	MOVLW 0x66
0A94  6F9D      	MOVWF CompTempVar697+D'1', 1
0A96  6F9E      	MOVWF CompTempVar697+D'2', 1
0A98  6B9F      	CLRF CompTempVar697+D'3', 1
0A9A  0E00      	MOVLW HIGH(CompTempVar697+D'0')
0A9C  6F9B      	MOVWF ledPrint_00000_arg_s+D'1', 1
0A9E  0E9C      	MOVLW LOW(CompTempVar697+D'0')
0AA0  6F9A      	MOVWF ledPrint_00000_arg_s, 1
0AA2  EC81F000  	CALL ledPrint_00000
0AA6  D033      	BRA	label102
0AA8            label100
0AA8  0E01      	MOVLW 0x01
0AAA  6F99      	MOVWF ledPrint_00000_arg_iLine, 1
0AAC  0E48      	MOVLW 0x48
0AAE  6F9C      	MOVWF CompTempVar699, 1
0AB0  0E61      	MOVLW 0x61
0AB2  6F9D      	MOVWF CompTempVar699+D'1', 1
0AB4  0E66      	MOVLW 0x66
0AB6  6F9E      	MOVWF CompTempVar699+D'2', 1
0AB8  0E6C      	MOVLW 0x6C
0ABA  6F9F      	MOVWF CompTempVar699+D'3', 1
0ABC  0E65      	MOVLW 0x65
0ABE  6FA0      	MOVWF CompTempVar699+D'4', 1
0AC0  0E72      	MOVLW 0x72
0AC2  6FA1      	MOVWF CompTempVar699+D'5', 1
0AC4  6BA2      	CLRF CompTempVar699+D'6', 1
0AC6  0E00      	MOVLW HIGH(CompTempVar699+D'0')
0AC8  6F9B      	MOVWF ledPrint_00000_arg_s+D'1', 1
0ACA  0E9C      	MOVLW LOW(CompTempVar699+D'0')
0ACC  6F9A      	MOVWF ledPrint_00000_arg_s, 1
0ACE  EC81F000  	CALL ledPrint_00000
0AD2  5380      	MOVF gbl_iSurroundMode, F, 1
0AD4  E00E      	BZ	label101
0AD6  0E02      	MOVLW 0x02
0AD8  6F99      	MOVWF ledPrint_00000_arg_iLine, 1
0ADA  0E4F      	MOVLW 0x4F
0ADC  6F9C      	MOVWF CompTempVar701, 1
0ADE  0E6E      	MOVLW 0x6E
0AE0  6F9D      	MOVWF CompTempVar701+D'1', 1
0AE2  6B9E      	CLRF CompTempVar701+D'2', 1
0AE4  0E00      	MOVLW HIGH(CompTempVar701+D'0')
0AE6  6F9B      	MOVWF ledPrint_00000_arg_s+D'1', 1
0AE8  0E9C      	MOVLW LOW(CompTempVar701+D'0')
0AEA  6F9A      	MOVWF ledPrint_00000_arg_s, 1
0AEC  EC81F000  	CALL ledPrint_00000
0AF0  D00E      	BRA	label102
0AF2            label101
0AF2  0E02      	MOVLW 0x02
0AF4  6F99      	MOVWF ledPrint_00000_arg_iLine, 1
0AF6  0E4F      	MOVLW 0x4F
0AF8  6F9C      	MOVWF CompTempVar703, 1
0AFA  0E66      	MOVLW 0x66
0AFC  6F9D      	MOVWF CompTempVar703+D'1', 1
0AFE  6F9E      	MOVWF CompTempVar703+D'2', 1
0B00  6B9F      	CLRF CompTempVar703+D'3', 1
0B02  0E00      	MOVLW HIGH(CompTempVar703+D'0')
0B04  6F9B      	MOVWF ledPrint_00000_arg_s+D'1', 1
0B06  0E9C      	MOVLW LOW(CompTempVar703+D'0')
0B08  6F9A      	MOVWF ledPrint_00000_arg_s, 1
0B0A  EC81F000  	CALL ledPrint_00000
0B0E            label102
0B0E  EC58F000  	CALL ledWrite_00000
0B12  0012      	RETURN
0B14            ; } functionDisplay function end

	ORG 0x00000B14
0B14            eepromRead_00000
0B14            ; { eepromRead ; function begin
0B14  5193      	MOVF eepromRead_00000_arg_address, W, 1
0B16  6EA9      	MOVWF gbl_eeadr
0B18  9EA6      	BCF gbl_eecon1,7
0B1A  9CA6      	BCF gbl_eecon1,6
0B1C  80A6      	BSF gbl_eecon1,0
0B1E  50A8      	MOVF gbl_eedata, W
0B20  6F94      	MOVWF CompTempVarRet582, 1
0B22  0012      	RETURN
0B24            ; } eepromRead function end

	ORG 0x00000B24
0B24            timer1Rese_0001A
0B24            ; { timer1Reset ; function begin
0B24  0100      	MOVLB 0x00
0B26  6B76      	CLRF gbl_iMuteWasPressed, 1
0B28  0E0C      	MOVLW 0x0C
0B2A  6ECF      	MOVWF gbl_tmr1h
0B2C  6ACE      	CLRF gbl_tmr1l
0B2E  0012      	RETURN
0B30            ; } timer1Reset function end

	ORG 0x00000B30
0B30            readData_00000
0B30            ; { readData ; function begin
0B30  0100      	MOVLB 0x00
0B32  6B93      	CLRF eepromRead_00000_arg_address, 1
0B34  EC8AF005  	CALL eepromRead_00000
0B38  0E0A      	MOVLW 0x0A
0B3A  6394      	CPFSEQ CompTempVarRet582, 1
0B3C  0012      	RETURN
0B3E  0E01      	MOVLW 0x01
0B40  6F93      	MOVWF eepromRead_00000_arg_address, 1
0B42  EC8AF005  	CALL eepromRead_00000
0B46  5194      	MOVF CompTempVarRet582, W, 1
0B48  6F73      	MOVWF gbl_iVolume, 1
0B4A  0E02      	MOVLW 0x02
0B4C  6F93      	MOVWF eepromRead_00000_arg_address, 1
0B4E  EC8AF005  	CALL eepromRead_00000
0B52  5194      	MOVF CompTempVarRet582, W, 1
0B54  6F77      	MOVWF gbl_iFrontBalance, 1
0B56  0E03      	MOVLW 0x03
0B58  6F93      	MOVWF eepromRead_00000_arg_address, 1
0B5A  EC8AF005  	CALL eepromRead_00000
0B5E  5194      	MOVF CompTempVarRet582, W, 1
0B60  6F78      	MOVWF gbl_iRearBalance, 1
0B62  0E04      	MOVLW 0x04
0B64  6F93      	MOVWF eepromRead_00000_arg_address, 1
0B66  EC8AF005  	CALL eepromRead_00000
0B6A  5194      	MOVF CompTempVarRet582, W, 1
0B6C  6F79      	MOVWF gbl_iRearAdjust, 1
0B6E  0E05      	MOVLW 0x05
0B70  6F93      	MOVWF eepromRead_00000_arg_address, 1
0B72  EC8AF005  	CALL eepromRead_00000
0B76  5194      	MOVF CompTempVarRet582, W, 1
0B78  6F7A      	MOVWF gbl_iCentreAdjust, 1
0B7A  0E06      	MOVLW 0x06
0B7C  6F93      	MOVWF eepromRead_00000_arg_address, 1
0B7E  EC8AF005  	CALL eepromRead_00000
0B82  5194      	MOVF CompTempVarRet582, W, 1
0B84  6F7B      	MOVWF gbl_iSubAdjust, 1
0B86  0E07      	MOVLW 0x07
0B88  6F93      	MOVWF eepromRead_00000_arg_address, 1
0B8A  EC8AF005  	CALL eepromRead_00000
0B8E  5194      	MOVF CompTempVarRet582, W, 1
0B90  6F7E      	MOVWF gbl_iActiveInput, 1
0B92  0E08      	MOVLW 0x08
0B94  6F93      	MOVWF eepromRead_00000_arg_address, 1
0B96  EC8AF005  	CALL eepromRead_00000
0B9A  5194      	MOVF CompTempVarRet582, W, 1
0B9C  6F80      	MOVWF gbl_iSurroundMode, 1
0B9E  0E09      	MOVLW 0x09
0BA0  6F93      	MOVWF eepromRead_00000_arg_address, 1
0BA2  EC8AF005  	CALL eepromRead_00000
0BA6  5194      	MOVF CompTempVarRet582, W, 1
0BA8  6F81      	MOVWF gbl_iExtSurroundMode, 1
0BAA  0E0A      	MOVLW 0x0A
0BAC  6F93      	MOVWF eepromRead_00000_arg_address, 1
0BAE  EC8AF005  	CALL eepromRead_00000
0BB2  5194      	MOVF CompTempVarRet582, W, 1
0BB4  6F7F      	MOVWF gbl_iTrigger, 1
0BB6  0012      	RETURN
0BB8            ; } readData function end

	ORG 0x00000BB8
0BB8            ledTest_00000
0BB8            ; { ledTest ; function begin
0BB8  0E01      	MOVLW 0x01
0BBA  0100      	MOVLB 0x00
0BBC  6F99      	MOVWF ledPrint_00000_arg_iLine, 1
0BBE  0E20      	MOVLW 0x20
0BC0  6FA0      	MOVWF CompTempVar600+D'4', 1
0BC2  0E49      	MOVLW 0x49
0BC4  6F9C      	MOVWF CompTempVar600, 1
0BC6  0E69      	MOVLW 0x69
0BC8  6F9E      	MOVWF CompTempVar600+D'2', 1
0BCA  0E6E      	MOVLW 0x6E
0BCC  6F9D      	MOVWF CompTempVar600+D'1', 1
0BCE  6FA2      	MOVWF CompTempVar600+D'6', 1
0BD0  0E6F      	MOVLW 0x6F
0BD2  6FA1      	MOVWF CompTempVar600+D'5', 1
0BD4  0E74      	MOVLW 0x74
0BD6  6F9F      	MOVWF CompTempVar600+D'3', 1
0BD8  6BA3      	CLRF CompTempVar600+D'7', 1
0BDA  0E00      	MOVLW HIGH(CompTempVar600+D'0')
0BDC  6F9B      	MOVWF ledPrint_00000_arg_s+D'1', 1
0BDE  0E9C      	MOVLW LOW(CompTempVar600+D'0')
0BE0  6F9A      	MOVWF ledPrint_00000_arg_s, 1
0BE2  EC81F000  	CALL ledPrint_00000
0BE6  0E02      	MOVLW 0x02
0BE8  6F99      	MOVWF ledPrint_00000_arg_iLine, 1
0BEA  0E54      	MOVLW 0x54
0BEC  6F9C      	MOVWF CompTempVar602, 1
0BEE  0E65      	MOVLW 0x65
0BF0  6F9D      	MOVWF CompTempVar602+D'1', 1
0BF2  0E73      	MOVLW 0x73
0BF4  6F9E      	MOVWF CompTempVar602+D'2', 1
0BF6  0E74      	MOVLW 0x74
0BF8  6F9F      	MOVWF CompTempVar602+D'3', 1
0BFA  0E69      	MOVLW 0x69
0BFC  6FA0      	MOVWF CompTempVar602+D'4', 1
0BFE  0E6E      	MOVLW 0x6E
0C00  6FA1      	MOVWF CompTempVar602+D'5', 1
0C02  0E67      	MOVLW 0x67
0C04  6FA2      	MOVWF CompTempVar602+D'6', 1
0C06  6BA3      	CLRF CompTempVar602+D'7', 1
0C08  0E00      	MOVLW HIGH(CompTempVar602+D'0')
0C0A  6F9B      	MOVWF ledPrint_00000_arg_s+D'1', 1
0C0C  0E9C      	MOVLW LOW(CompTempVar602+D'0')
0C0E  6F9A      	MOVWF ledPrint_00000_arg_s, 1
0C10  EC81F000  	CALL ledPrint_00000
0C14  EC58F000  	CALL ledWrite_00000
0C18  0012      	RETURN
0C1A            ; } ledTest function end

	ORG 0x00000C1A
0C1A            functionUp_00000
0C1A            ; { functionUp ; function begin
0C1A  0100      	MOVLB 0x00
0C1C  2B82      	INCF gbl_iFunctionMode, F, 1
0C1E  0E09      	MOVLW 0x09
0C20  6582      	CPFSGT gbl_iFunctionMode, 1
0C22  D002      	BRA	label103
0C24  0E01      	MOVLW 0x01
0C26  6F82      	MOVWF gbl_iFunctionMode, 1
0C28            label103
0C28  EC0FF004  	CALL functionDi_00022
0C2C  0012      	RETURN
0C2E            ; } functionUp function end

	ORG 0x00000C2E
0C2E            functionRa_00024
0C2E            ; { functionRaise ; function begin
0C2E  0100      	MOVLB 0x00
0C30  0582      	DECF gbl_iFunctionMode, W, 1
0C32  E020      	BZ	label111
0C34  0E02      	MOVLW 0x02
0C36  6382      	CPFSEQ gbl_iFunctionMode, 1
0C38  D001      	BRA	label104
0C3A  D025      	BRA	label112
0C3C            label104
0C3C  0E03      	MOVLW 0x03
0C3E  6382      	CPFSEQ gbl_iFunctionMode, 1
0C40  D001      	BRA	label105
0C42  D02A      	BRA	label113
0C44            label105
0C44  0E04      	MOVLW 0x04
0C46  6382      	CPFSEQ gbl_iFunctionMode, 1
0C48  D001      	BRA	label106
0C4A  D02F      	BRA	label114
0C4C            label106
0C4C  0E05      	MOVLW 0x05
0C4E  6382      	CPFSEQ gbl_iFunctionMode, 1
0C50  D001      	BRA	label107
0C52  D034      	BRA	label115
0C54            label107
0C54  0E06      	MOVLW 0x06
0C56  6382      	CPFSEQ gbl_iFunctionMode, 1
0C58  D001      	BRA	label108
0C5A  D039      	BRA	label116
0C5C            label108
0C5C  0E07      	MOVLW 0x07
0C5E  6382      	CPFSEQ gbl_iFunctionMode, 1
0C60  D001      	BRA	label109
0C62  D039      	BRA	label117
0C64            label109
0C64  0E08      	MOVLW 0x08
0C66  6382      	CPFSEQ gbl_iFunctionMode, 1
0C68  D001      	BRA	label110
0C6A  D039      	BRA	label118
0C6C            label110
0C6C  0E09      	MOVLW 0x09
0C6E  6382      	CPFSEQ gbl_iFunctionMode, 1
0C70  D047      	BRA	label124
0C72  D03E      	BRA	label121
0C74            label111
0C74  517A      	MOVF gbl_iCentreAdjust, W, 1
0C76  6F94      	MOVWF functionVa_00025_arg_iValue, 1
0C78  EC06F004  	CALL functionVa_00025
0C7C  5195      	MOVF CompTempVarRet709, W, 1
0C7E  6F7A      	MOVWF gbl_iCentreAdjust, 1
0C80  ECDDF001  	CALL writeVolum_0001E
0C84  D03D      	BRA	label124
0C86            label112
0C86  5179      	MOVF gbl_iRearAdjust, W, 1
0C88  6F94      	MOVWF functionVa_00025_arg_iValue, 1
0C8A  EC06F004  	CALL functionVa_00025
0C8E  5195      	MOVF CompTempVarRet709, W, 1
0C90  6F79      	MOVWF gbl_iRearAdjust, 1
0C92  ECDDF001  	CALL writeVolum_0001E
0C96  D034      	BRA	label124
0C98            label113
0C98  5177      	MOVF gbl_iFrontBalance, W, 1
0C9A  6F94      	MOVWF functionVa_00025_arg_iValue, 1
0C9C  EC06F004  	CALL functionVa_00025
0CA0  5195      	MOVF CompTempVarRet709, W, 1
0CA2  6F77      	MOVWF gbl_iFrontBalance, 1
0CA4  ECDDF001  	CALL writeVolum_0001E
0CA8  D02B      	BRA	label124
0CAA            label114
0CAA  5178      	MOVF gbl_iRearBalance, W, 1
0CAC  6F94      	MOVWF functionVa_00025_arg_iValue, 1
0CAE  EC06F004  	CALL functionVa_00025
0CB2  5195      	MOVF CompTempVarRet709, W, 1
0CB4  6F78      	MOVWF gbl_iRearBalance, 1
0CB6  ECDDF001  	CALL writeVolum_0001E
0CBA  D022      	BRA	label124
0CBC            label115
0CBC  517B      	MOVF gbl_iSubAdjust, W, 1
0CBE  6F94      	MOVWF functionVa_00025_arg_iValue, 1
0CC0  EC06F004  	CALL functionVa_00025
0CC4  5195      	MOVF CompTempVarRet709, W, 1
0CC6  6F7B      	MOVWF gbl_iSubAdjust, 1
0CC8  ECDDF001  	CALL writeVolum_0001E
0CCC  D019      	BRA	label124
0CCE            label116
0CCE  817F      	BSF gbl_iTrigger,0, 1
0CD0  EC89F002  	CALL writeRelay_00000
0CD4  D015      	BRA	label124
0CD6            label117
0CD6  837F      	BSF gbl_iTrigger,1, 1
0CD8  EC89F002  	CALL writeRelay_00000
0CDC  D011      	BRA	label124
0CDE            label118
0CDE  5381      	MOVF gbl_iExtSurroundMode, F, 1
0CE0  E002      	BZ	label119
0CE2  6B81      	CLRF gbl_iExtSurroundMode, 1
0CE4  D002      	BRA	label120
0CE6            label119
0CE6  0E01      	MOVLW 0x01
0CE8  6F81      	MOVWF gbl_iExtSurroundMode, 1
0CEA            label120
0CEA  EC89F002  	CALL writeRelay_00000
0CEE  D008      	BRA	label124
0CF0            label121
0CF0  5380      	MOVF gbl_iSurroundMode, F, 1
0CF2  E002      	BZ	label122
0CF4  6B80      	CLRF gbl_iSurroundMode, 1
0CF6  D002      	BRA	label123
0CF8            label122
0CF8  0E01      	MOVLW 0x01
0CFA  6F80      	MOVWF gbl_iSurroundMode, 1
0CFC            label123
0CFC  ECDDF001  	CALL writeVolum_0001E
0D00            label124
0D00  EC0FF004  	CALL functionDi_00022
0D04  0012      	RETURN
0D06            ; } functionRaise function end

	ORG 0x00000D06
0D06            functionLo_00026
0D06            ; { functionLower ; function begin
0D06  0100      	MOVLB 0x00
0D08  0582      	DECF gbl_iFunctionMode, W, 1
0D0A  E020      	BZ	label132
0D0C  0E02      	MOVLW 0x02
0D0E  6382      	CPFSEQ gbl_iFunctionMode, 1
0D10  D001      	BRA	label125
0D12  D025      	BRA	label133
0D14            label125
0D14  0E03      	MOVLW 0x03
0D16  6382      	CPFSEQ gbl_iFunctionMode, 1
0D18  D001      	BRA	label126
0D1A  D02A      	BRA	label134
0D1C            label126
0D1C  0E04      	MOVLW 0x04
0D1E  6382      	CPFSEQ gbl_iFunctionMode, 1
0D20  D001      	BRA	label127
0D22  D02F      	BRA	label135
0D24            label127
0D24  0E05      	MOVLW 0x05
0D26  6382      	CPFSEQ gbl_iFunctionMode, 1
0D28  D001      	BRA	label128
0D2A  D034      	BRA	label136
0D2C            label128
0D2C  0E06      	MOVLW 0x06
0D2E  6382      	CPFSEQ gbl_iFunctionMode, 1
0D30  D001      	BRA	label129
0D32  D039      	BRA	label137
0D34            label129
0D34  0E07      	MOVLW 0x07
0D36  6382      	CPFSEQ gbl_iFunctionMode, 1
0D38  D001      	BRA	label130
0D3A  D039      	BRA	label138
0D3C            label130
0D3C  0E08      	MOVLW 0x08
0D3E  6382      	CPFSEQ gbl_iFunctionMode, 1
0D40  D001      	BRA	label131
0D42  D039      	BRA	label139
0D44            label131
0D44  0E09      	MOVLW 0x09
0D46  6382      	CPFSEQ gbl_iFunctionMode, 1
0D48  D047      	BRA	label145
0D4A  D03E      	BRA	label142
0D4C            label132
0D4C  517A      	MOVF gbl_iCentreAdjust, W, 1
0D4E  6F94      	MOVWF functionVa_00027_arg_iValue, 1
0D50  ECFDF003  	CALL functionVa_00027
0D54  5195      	MOVF CompTempVarRet710, W, 1
0D56  6F7A      	MOVWF gbl_iCentreAdjust, 1
0D58  ECDDF001  	CALL writeVolum_0001E
0D5C  D03D      	BRA	label145
0D5E            label133
0D5E  5179      	MOVF gbl_iRearAdjust, W, 1
0D60  6F94      	MOVWF functionVa_00027_arg_iValue, 1
0D62  ECFDF003  	CALL functionVa_00027
0D66  5195      	MOVF CompTempVarRet710, W, 1
0D68  6F79      	MOVWF gbl_iRearAdjust, 1
0D6A  ECDDF001  	CALL writeVolum_0001E
0D6E  D034      	BRA	label145
0D70            label134
0D70  5177      	MOVF gbl_iFrontBalance, W, 1
0D72  6F94      	MOVWF functionVa_00027_arg_iValue, 1
0D74  ECFDF003  	CALL functionVa_00027
0D78  5195      	MOVF CompTempVarRet710, W, 1
0D7A  6F77      	MOVWF gbl_iFrontBalance, 1
0D7C  ECDDF001  	CALL writeVolum_0001E
0D80  D02B      	BRA	label145
0D82            label135
0D82  5178      	MOVF gbl_iRearBalance, W, 1
0D84  6F94      	MOVWF functionVa_00027_arg_iValue, 1
0D86  ECFDF003  	CALL functionVa_00027
0D8A  5195      	MOVF CompTempVarRet710, W, 1
0D8C  6F78      	MOVWF gbl_iRearBalance, 1
0D8E  ECDDF001  	CALL writeVolum_0001E
0D92  D022      	BRA	label145
0D94            label136
0D94  517B      	MOVF gbl_iSubAdjust, W, 1
0D96  6F94      	MOVWF functionVa_00027_arg_iValue, 1
0D98  ECFDF003  	CALL functionVa_00027
0D9C  5195      	MOVF CompTempVarRet710, W, 1
0D9E  6F7B      	MOVWF gbl_iSubAdjust, 1
0DA0  ECDDF001  	CALL writeVolum_0001E
0DA4  D019      	BRA	label145
0DA6            label137
0DA6  917F      	BCF gbl_iTrigger,0, 1
0DA8  EC89F002  	CALL writeRelay_00000
0DAC  D015      	BRA	label145
0DAE            label138
0DAE  937F      	BCF gbl_iTrigger,1, 1
0DB0  EC89F002  	CALL writeRelay_00000
0DB4  D011      	BRA	label145
0DB6            label139
0DB6  5381      	MOVF gbl_iExtSurroundMode, F, 1
0DB8  E002      	BZ	label140
0DBA  6B81      	CLRF gbl_iExtSurroundMode, 1
0DBC  D002      	BRA	label141
0DBE            label140
0DBE  0E01      	MOVLW 0x01
0DC0  6F81      	MOVWF gbl_iExtSurroundMode, 1
0DC2            label141
0DC2  EC89F002  	CALL writeRelay_00000
0DC6  D008      	BRA	label145
0DC8            label142
0DC8  5380      	MOVF gbl_iSurroundMode, F, 1
0DCA  E002      	BZ	label143
0DCC  6B80      	CLRF gbl_iSurroundMode, 1
0DCE  D002      	BRA	label144
0DD0            label143
0DD0  0E01      	MOVLW 0x01
0DD2  6F80      	MOVWF gbl_iSurroundMode, 1
0DD4            label144
0DD4  ECDDF001  	CALL writeVolum_0001E
0DD8            label145
0DD8  EC0FF004  	CALL functionDi_00022
0DDC  0012      	RETURN
0DDE            ; } functionLower function end

	ORG 0x00000DDE
0DDE            functionDo_00028
0DDE            ; { functionDown ; function begin
0DDE  0100      	MOVLB 0x00
0DE0  0782      	DECF gbl_iFunctionMode, F, 1
0DE2  0E01      	MOVLW 0x01
0DE4  6182      	CPFSLT gbl_iFunctionMode, 1
0DE6  D002      	BRA	label146
0DE8  0E09      	MOVLW 0x09
0DEA  6F82      	MOVWF gbl_iFunctionMode, 1
0DEC            label146
0DEC  EC0FF004  	CALL functionDi_00022
0DF0  0012      	RETURN
0DF2            ; } functionDown function end

	ORG 0x00000DF2
0DF2            eepromWrit_0001B
0DF2            ; { eepromWrite ; function begin
0DF2  50F2      	MOVF gbl_intcon, W
0DF4  6F95      	MOVWF eepromWrit_0001B_1_intconsave, 1
0DF6  5193      	MOVF eepromWrit_0001B_arg_address, W, 1
0DF8  6EA9      	MOVWF gbl_eeadr
0DFA  5194      	MOVF eepromWrit_0001B_arg_data, W, 1
0DFC  6EA8      	MOVWF gbl_eedata
0DFE  9EA6      	BCF gbl_eecon1,7
0E00  9CA6      	BCF gbl_eecon1,6
0E02  84A6      	BSF gbl_eecon1,2
0E04  6AF2      	CLRF gbl_intcon
0E06  0E55      	MOVLW 0x55
0E08  6EA7      	MOVWF gbl_eecon2
0E0A  0EAA      	MOVLW 0xAA
0E0C  6EA7      	MOVWF gbl_eecon2
0E0E  82A6      	BSF gbl_eecon1,1
0E10  5195      	MOVF eepromWrit_0001B_1_intconsave, W, 1
0E12  6EF2      	MOVWF gbl_intcon
0E14  94A6      	BCF gbl_eecon1,2
0E16            label147
0E16  A8A1      	BTFSS gbl_pir2,4
0E18  D7FE      	BRA	label147
0E1A  98A1      	BCF gbl_pir2,4
0E1C  0012      	RETURN
0E1E            ; } eepromWrite function end

	ORG 0x00000E1E
0E1E            doVolumeUp_00000
0E1E            ; { doVolumeUp ; function begin
0E1E  0EFF      	MOVLW 0xFF
0E20  0100      	MOVLB 0x00
0E22  6173      	CPFSLT gbl_iVolume, 1
0E24  0012      	RETURN
0E26  0E02      	MOVLW 0x02
0E28  2573      	ADDWF gbl_iVolume, W, 1
0E2A  6F94      	MOVWF doVolumeUp_00000_2_iNewVol, 1
0E2C  5173      	MOVF gbl_iVolume, W, 1
0E2E  6194      	CPFSLT doVolumeUp_00000_2_iNewVol, 1
0E30  D001      	BRA	label148
0E32  6994      	SETF doVolumeUp_00000_2_iNewVol, 1
0E34            label148
0E34  5194      	MOVF doVolumeUp_00000_2_iNewVol, W, 1
0E36  6F73      	MOVWF gbl_iVolume, 1
0E38  ECDDF001  	CALL writeVolum_0001E
0E3C  0012      	RETURN
0E3E            ; } doVolumeUp function end

	ORG 0x00000E3E
0E3E            doVolumeDo_00029
0E3E            ; { doVolumeDown ; function begin
0E3E  0E00      	MOVLW 0x00
0E40  0100      	MOVLB 0x00
0E42  6573      	CPFSGT gbl_iVolume, 1
0E44  0012      	RETURN
0E46  0E02      	MOVLW 0x02
0E48  5D73      	SUBWF gbl_iVolume, W, 1
0E4A  6F94      	MOVWF doVolumeDo_00029_2_iNewVol, 1
0E4C  5194      	MOVF doVolumeDo_00029_2_iNewVol, W, 1
0E4E  6173      	CPFSLT gbl_iVolume, 1
0E50  D001      	BRA	label149
0E52  6B94      	CLRF doVolumeDo_00029_2_iNewVol, 1
0E54            label149
0E54  5194      	MOVF doVolumeDo_00029_2_iNewVol, W, 1
0E56  6F73      	MOVWF gbl_iVolume, 1
0E58  ECDDF001  	CALL writeVolum_0001E
0E5C  0012      	RETURN
0E5E            ; } doVolumeDown function end

	ORG 0x00000E5E
0E5E            doPower_00000
0E5E            ; { doPower ; function begin
0E5E  0100      	MOVLB 0x00
0E60  537C      	MOVF gbl_iPower, F, 1
0E62  E044      	BZ	label150
0E64  9280      	BCF gbl_porta,1
0E66  9A80      	BCF gbl_porta,5
0E68  8880      	BSF gbl_porta,4
0E6A  9680      	BCF gbl_porta,3
0E6C  90CD      	BCF gbl_t1con,0
0E6E  0E01      	MOVLW 0x01
0E70  6F99      	MOVWF ledPrint_00000_arg_iLine, 1
0E72  0E47      	MOVLW 0x47
0E74  6F9C      	MOVWF CompTempVar612, 1
0E76  0E6F      	MOVLW 0x6F
0E78  6F9D      	MOVWF CompTempVar612+D'1', 1
0E7A  6F9E      	MOVWF CompTempVar612+D'2', 1
0E7C  0E64      	MOVLW 0x64
0E7E  6F9F      	MOVWF CompTempVar612+D'3', 1
0E80  0E62      	MOVLW 0x62
0E82  6FA0      	MOVWF CompTempVar612+D'4', 1
0E84  0E79      	MOVLW 0x79
0E86  6FA1      	MOVWF CompTempVar612+D'5', 1
0E88  0E65      	MOVLW 0x65
0E8A  6FA2      	MOVWF CompTempVar612+D'6', 1
0E8C  6BA3      	CLRF CompTempVar612+D'7', 1
0E8E  0E00      	MOVLW HIGH(CompTempVar612+D'0')
0E90  6F9B      	MOVWF ledPrint_00000_arg_s+D'1', 1
0E92  0E9C      	MOVLW LOW(CompTempVar612+D'0')
0E94  6F9A      	MOVWF ledPrint_00000_arg_s, 1
0E96  EC81F000  	CALL ledPrint_00000
0E9A  0E02      	MOVLW 0x02
0E9C  6F99      	MOVWF ledPrint_00000_arg_iLine, 1
0E9E  6B94      	CLRF CompTempVar614, 1
0EA0  0E00      	MOVLW HIGH(CompTempVar614+D'0')
0EA2  6F9B      	MOVWF ledPrint_00000_arg_s+D'1', 1
0EA4  0E94      	MOVLW LOW(CompTempVar614+D'0')
0EA6  6F9A      	MOVWF ledPrint_00000_arg_s, 1
0EA8  EC81F000  	CALL ledPrint_00000
0EAC  EC58F000  	CALL ledWrite_00000
0EB0  6B7C      	CLRF gbl_iPower, 1
0EB2  0EFA      	MOVLW 0xFA
0EB4  6F95      	MOVWF delay_ms_00000_arg_del, 1
0EB6  EC10F000  	CALL delay_ms_00000
0EBA  0EFA      	MOVLW 0xFA
0EBC  6F95      	MOVWF delay_ms_00000_arg_del, 1
0EBE  EC10F000  	CALL delay_ms_00000
0EC2  EC89F002  	CALL writeRelay_00000
0EC6  0EFA      	MOVLW 0xFA
0EC8  6F95      	MOVWF delay_ms_00000_arg_del, 1
0ECA  EC10F000  	CALL delay_ms_00000
0ECE  0EFA      	MOVLW 0xFA
0ED0  6F95      	MOVWF delay_ms_00000_arg_del, 1
0ED2  EC10F000  	CALL delay_ms_00000
0ED6  9080      	BCF gbl_porta,0
0ED8  0E06      	MOVLW 0x06
0EDA  6F94      	MOVWF delay_s_00000_arg_del, 1
0EDC  EC28F000  	CALL delay_s_00000
0EE0  ECE4F003  	CALL ledOff_00000
0EE4  9A80      	BCF gbl_porta,5
0EE6  9880      	BCF gbl_porta,4
0EE8  8680      	BSF gbl_porta,3
0EEA  0012      	RETURN
0EEC            label150
0EEC  A481      	BTFSS gbl_portb,2
0EEE  0012      	RETURN
0EF0  8080      	BSF gbl_porta,0
0EF2  9A80      	BCF gbl_porta,5
0EF4  8880      	BSF gbl_porta,4
0EF6  9680      	BCF gbl_porta,3
0EF8  ECDDF001  	CALL writeVolum_0001E
0EFC  ECC0F003  	CALL ledOn_00000
0F00  0E01      	MOVLW 0x01
0F02  6F99      	MOVWF ledPrint_00000_arg_iLine, 1
0F04  0E48      	MOVLW 0x48
0F06  6F9C      	MOVWF CompTempVar616, 1
0F08  0E45      	MOVLW 0x45
0F0A  6F9D      	MOVWF CompTempVar616+D'1', 1
0F0C  0E4C      	MOVLW 0x4C
0F0E  6F9E      	MOVWF CompTempVar616+D'2', 1
0F10  6F9F      	MOVWF CompTempVar616+D'3', 1
0F12  0E4F      	MOVLW 0x4F
0F14  6FA0      	MOVWF CompTempVar616+D'4', 1
0F16  6BA1      	CLRF CompTempVar616+D'5', 1
0F18  0E00      	MOVLW HIGH(CompTempVar616+D'0')
0F1A  6F9B      	MOVWF ledPrint_00000_arg_s+D'1', 1
0F1C  0E9C      	MOVLW LOW(CompTempVar616+D'0')
0F1E  6F9A      	MOVWF ledPrint_00000_arg_s, 1
0F20  EC81F000  	CALL ledPrint_00000
0F24  0E02      	MOVLW 0x02
0F26  6F99      	MOVWF ledPrint_00000_arg_iLine, 1
0F28  6B95      	CLRF CompTempVar618, 1
0F2A  0E00      	MOVLW HIGH(CompTempVar618+D'0')
0F2C  6F9B      	MOVWF ledPrint_00000_arg_s+D'1', 1
0F2E  0E95      	MOVLW LOW(CompTempVar618+D'0')
0F30  6F9A      	MOVWF ledPrint_00000_arg_s, 1
0F32  EC81F000  	CALL ledPrint_00000
0F36  EC58F000  	CALL ledWrite_00000
0F3A  0E01      	MOVLW 0x01
0F3C  6F7C      	MOVWF gbl_iPower, 1
0F3E  EC89F002  	CALL writeRelay_00000
0F42  6B94      	CLRF doPower_00000_51_l, 1
0F44            label151
0F44  0E1B      	MOVLW 0x1B
0F46  6194      	CPFSLT doPower_00000_51_l, 1
0F48  D00E      	BRA	label152
0F4A  8A80      	BSF gbl_porta,5
0F4C  9880      	BCF gbl_porta,4
0F4E  0E64      	MOVLW 0x64
0F50  6F95      	MOVWF delay_ms_00000_arg_del, 1
0F52  EC10F000  	CALL delay_ms_00000
0F56  9A80      	BCF gbl_porta,5
0F58  8880      	BSF gbl_porta,4
0F5A  0E64      	MOVLW 0x64
0F5C  6F95      	MOVWF delay_ms_00000_arg_del, 1
0F5E  EC10F000  	CALL delay_ms_00000
0F62  2B94      	INCF doPower_00000_51_l, F, 1
0F64  D7EF      	BRA	label151
0F66            label152
0F66  ECDDF001  	CALL writeVolum_0001E
0F6A  EC45F003  	CALL showInput_00000
0F6E  ECCCF002  	CALL showVolume_00000
0F72  EC58F000  	CALL ledWrite_00000
0F76  B481      	BTFSC gbl_portb,2
0F78  D004      	BRA	label153
0F7A  ECA7F003  	CALL showFault_00000
0F7E  6B7C      	CLRF gbl_iPower, 1
0F80  D001      	BRA	label154
0F82            label153
0F82  8280      	BSF gbl_porta,1
0F84            label154
0F84  80CD      	BSF gbl_t1con,0
0F86  0012      	RETURN
0F88            ; } doPower function end

	ORG 0x00000F88
0F88            doInputUp_00000
0F88            ; { doInputUp ; function begin
0F88  0100      	MOVLB 0x00
0F8A  2B7E      	INCF gbl_iActiveInput, F, 1
0F8C  0E04      	MOVLW 0x04
0F8E  617E      	CPFSLT gbl_iActiveInput, 1
0F90  D001      	BRA	label155
0F92  D001      	BRA	label156
0F94            label155
0F94  6B7E      	CLRF gbl_iActiveInput, 1
0F96            label156
0F96  EC89F002  	CALL writeRelay_00000
0F9A  0012      	RETURN
0F9C            ; } doInputUp function end

	ORG 0x00000F9C
0F9C            doInputDow_00020
0F9C            ; { doInputDown ; function begin
0F9C  0100      	MOVLB 0x00
0F9E  077E      	DECF gbl_iActiveInput, F, 1
0FA0  0E04      	MOVLW 0x04
0FA2  657E      	CPFSGT gbl_iActiveInput, 1
0FA4  D002      	BRA	label157
0FA6  0E03      	MOVLW 0x03
0FA8  6F7E      	MOVWF gbl_iActiveInput, 1
0FAA            label157
0FAA  EC89F002  	CALL writeRelay_00000
0FAE  0012      	RETURN
0FB0            ; } doInputDown function end

	ORG 0x00000FB0
0FB0            saveData_00000
0FB0            ; { saveData ; function begin
0FB0  0100      	MOVLB 0x00
0FB2  6B93      	CLRF eepromWrit_0001B_arg_address, 1
0FB4  0E0A      	MOVLW 0x0A
0FB6  6F94      	MOVWF eepromWrit_0001B_arg_data, 1
0FB8  ECF9F006  	CALL eepromWrit_0001B
0FBC  0E01      	MOVLW 0x01
0FBE  6F93      	MOVWF eepromWrit_0001B_arg_address, 1
0FC0  5173      	MOVF gbl_iVolume, W, 1
0FC2  6F94      	MOVWF eepromWrit_0001B_arg_data, 1
0FC4  ECF9F006  	CALL eepromWrit_0001B
0FC8  0E02      	MOVLW 0x02
0FCA  6F93      	MOVWF eepromWrit_0001B_arg_address, 1
0FCC  5177      	MOVF gbl_iFrontBalance, W, 1
0FCE  6F94      	MOVWF eepromWrit_0001B_arg_data, 1
0FD0  ECF9F006  	CALL eepromWrit_0001B
0FD4  0E03      	MOVLW 0x03
0FD6  6F93      	MOVWF eepromWrit_0001B_arg_address, 1
0FD8  5178      	MOVF gbl_iRearBalance, W, 1
0FDA  6F94      	MOVWF eepromWrit_0001B_arg_data, 1
0FDC  ECF9F006  	CALL eepromWrit_0001B
0FE0  0E04      	MOVLW 0x04
0FE2  6F93      	MOVWF eepromWrit_0001B_arg_address, 1
0FE4  5179      	MOVF gbl_iRearAdjust, W, 1
0FE6  6F94      	MOVWF eepromWrit_0001B_arg_data, 1
0FE8  ECF9F006  	CALL eepromWrit_0001B
0FEC  0E05      	MOVLW 0x05
0FEE  6F93      	MOVWF eepromWrit_0001B_arg_address, 1
0FF0  517A      	MOVF gbl_iCentreAdjust, W, 1
0FF2  6F94      	MOVWF eepromWrit_0001B_arg_data, 1
0FF4  ECF9F006  	CALL eepromWrit_0001B
0FF8  0E06      	MOVLW 0x06
0FFA  6F93      	MOVWF eepromWrit_0001B_arg_address, 1
0FFC  517B      	MOVF gbl_iSubAdjust, W, 1
0FFE  6F94      	MOVWF eepromWrit_0001B_arg_data, 1
1000  ECF9F006  	CALL eepromWrit_0001B
1004  0E07      	MOVLW 0x07
1006  6F93      	MOVWF eepromWrit_0001B_arg_address, 1
1008  517E      	MOVF gbl_iActiveInput, W, 1
100A  6F94      	MOVWF eepromWrit_0001B_arg_data, 1
100C  ECF9F006  	CALL eepromWrit_0001B
1010  0E08      	MOVLW 0x08
1012  6F93      	MOVWF eepromWrit_0001B_arg_address, 1
1014  5180      	MOVF gbl_iSurroundMode, W, 1
1016  6F94      	MOVWF eepromWrit_0001B_arg_data, 1
1018  ECF9F006  	CALL eepromWrit_0001B
101C  0E09      	MOVLW 0x09
101E  6F93      	MOVWF eepromWrit_0001B_arg_address, 1
1020  5181      	MOVF gbl_iExtSurroundMode, W, 1
1022  6F94      	MOVWF eepromWrit_0001B_arg_data, 1
1024  ECF9F006  	CALL eepromWrit_0001B
1028  0E0A      	MOVLW 0x0A
102A  6F93      	MOVWF eepromWrit_0001B_arg_address, 1
102C  517F      	MOVF gbl_iTrigger, W, 1
102E  6F94      	MOVWF eepromWrit_0001B_arg_data, 1
1030  ECF9F006  	CALL eepromWrit_0001B
1034  0012      	RETURN
1036            ; } saveData function end

	ORG 0x00001036
1036            rc5Process_00000
1036            ; { rc5Process ; function begin
1036  9480      	BCF gbl_porta,2
1038  0100      	MOVLB 0x00
103A  6B93      	CLRF rc5Process_00000_1_iGotCommand, 1
103C  5391      	MOVF gbl_rc5_address, F, 1
103E  A4D8      	BTFSS STATUS,Z
1040  0012      	RETURN
1042  537C      	MOVF gbl_iPower, F, 1
1044  B4D8      	BTFSC STATUS,Z
1046  D061      	BRA	label175
1048  0E0D      	MOVLW 0x0D
104A  6392      	CPFSEQ gbl_rc5_command, 1
104C  D001      	BRA	label158
104E  D010      	BRA	label162
1050            label158
1050  0E10      	MOVLW 0x10
1052  6392      	CPFSEQ gbl_rc5_command, 1
1054  D001      	BRA	label159
1056  D02A      	BRA	label167
1058            label159
1058  0E11      	MOVLW 0x11
105A  6392      	CPFSEQ gbl_rc5_command, 1
105C  D001      	BRA	label160
105E  D030      	BRA	label169
1060            label160
1060  0E20      	MOVLW 0x20
1062  6392      	CPFSEQ gbl_rc5_command, 1
1064  D001      	BRA	label161
1066  D036      	BRA	label171
1068            label161
1068  0E21      	MOVLW 0x21
106A  6392      	CPFSEQ gbl_rc5_command, 1
106C  D04E      	BRA	label175
106E  D040      	BRA	label173
1070            label162
1070  518F      	MOVF gbl_rc5_flickBit, W, 1
1072  6390      	CPFSEQ gbl_rc5_flickBitOld, 1
1074  638F      	CPFSEQ gbl_rc5_flickBit, 1
1076  D00E      	BRA	label164
1078  6B75      	CLRF gbl_iMuteHeld, 1
107A  5382      	MOVF gbl_iFunctionMode, F, 1
107C  E105      	BNZ	label163
107E  EC92F005  	CALL timer1Rese_0001A
1082  0E01      	MOVLW 0x01
1084  6F76      	MOVWF gbl_iMuteWasPressed, 1
1086  D041      	BRA	label175
1088            label163
1088  6B82      	CLRF gbl_iFunctionMode, 1
108A  0E01      	MOVLW 0x01
108C  6F93      	MOVWF rc5Process_00000_1_iGotCommand, 1
108E  EC92F005  	CALL timer1Rese_0001A
1092  D03B      	BRA	label175
1094            label164
1094  2B75      	INCF gbl_iMuteHeld, F, 1
1096  EC92F005  	CALL timer1Rese_0001A
109A  0E09      	MOVLW 0x09
109C  6175      	CPFSLT gbl_iMuteHeld, 1
109E  D001      	BRA	label165
10A0  D003      	BRA	label166
10A2            label165
10A2  6B76      	CLRF gbl_iMuteWasPressed, 1
10A4  8D72      	BSF gbl_cTask,6, 1
10A6  D031      	BRA	label175
10A8            label166
10A8  80CD      	BSF gbl_t1con,0
10AA  D02F      	BRA	label175
10AC            label167
10AC  5382      	MOVF gbl_iFunctionMode, F, 1
10AE  E105      	BNZ	label168
10B0  0E01      	MOVLW 0x01
10B2  6F93      	MOVWF rc5Process_00000_1_iGotCommand, 1
10B4  EC0FF007  	CALL doVolumeUp_00000
10B8  D028      	BRA	label175
10BA            label168
10BA  EC17F006  	CALL functionRa_00024
10BE  D025      	BRA	label175
10C0            label169
10C0  5382      	MOVF gbl_iFunctionMode, F, 1
10C2  E105      	BNZ	label170
10C4  0E01      	MOVLW 0x01
10C6  6F93      	MOVWF rc5Process_00000_1_iGotCommand, 1
10C8  EC1FF007  	CALL doVolumeDo_00029
10CC  D01E      	BRA	label175
10CE            label170
10CE  EC83F006  	CALL functionLo_00026
10D2  D01B      	BRA	label175
10D4            label171
10D4  518F      	MOVF gbl_rc5_flickBit, W, 1
10D6  6390      	CPFSEQ gbl_rc5_flickBitOld, 1
10D8  638F      	CPFSEQ gbl_rc5_flickBit, 1
10DA  D017      	BRA	label175
10DC  5382      	MOVF gbl_iFunctionMode, F, 1
10DE  E105      	BNZ	label172
10E0  0E01      	MOVLW 0x01
10E2  6F93      	MOVWF rc5Process_00000_1_iGotCommand, 1
10E4  ECC4F007  	CALL doInputUp_00000
10E8  D010      	BRA	label175
10EA            label172
10EA  EC0DF006  	CALL functionUp_00000
10EE  D00D      	BRA	label175
10F0            label173
10F0  518F      	MOVF gbl_rc5_flickBit, W, 1
10F2  6390      	CPFSEQ gbl_rc5_flickBitOld, 1
10F4  638F      	CPFSEQ gbl_rc5_flickBit, 1
10F6  D009      	BRA	label175
10F8  5382      	MOVF gbl_iFunctionMode, F, 1
10FA  E105      	BNZ	label174
10FC  0E01      	MOVLW 0x01
10FE  6F93      	MOVWF rc5Process_00000_1_iGotCommand, 1
1100  ECCEF007  	CALL doInputDow_00020
1104  D002      	BRA	label175
1106            label174
1106  ECEFF006  	CALL functionDo_00028
110A            label175
110A  0E0C      	MOVLW 0x0C
110C  6392      	CPFSEQ gbl_rc5_command, 1
110E  D007      	BRA	label176
1110  518F      	MOVF gbl_rc5_flickBit, W, 1
1112  6390      	CPFSEQ gbl_rc5_flickBitOld, 1
1114  638F      	CPFSEQ gbl_rc5_flickBit, 1
1116  D003      	BRA	label176
1118  6B82      	CLRF gbl_iFunctionMode, 1
111A  EC2FF007  	CALL doPower_00000
111E            label176
111E  518F      	MOVF gbl_rc5_flickBit, W, 1
1120  6F90      	MOVWF gbl_rc5_flickBitOld, 1
1122  537C      	MOVF gbl_iPower, F, 1
1124  B4D8      	BTFSC STATUS,Z
1126  0012      	RETURN
1128  5393      	MOVF rc5Process_00000_1_iGotCommand, F, 1
112A  E007      	BZ	label177
112C  EC45F003  	CALL showInput_00000
1130  ECCCF002  	CALL showVolume_00000
1134  EC58F000  	CALL ledWrite_00000
1138  0012      	RETURN
113A            label177
113A  5382      	MOVF gbl_iFunctionMode, F, 1
113C  A4D8      	BTFSS STATUS,Z
113E  6B84      	CLRF gbl_iTimer1SecCounts, 1
1140  0012      	RETURN
1142            ; } rc5Process function end

	ORG 0x00001142
1142            onTimer1_00000
1142            ; { onTimer1 ; function begin
1142  0100      	MOVLB 0x00
1144  2B84      	INCF gbl_iTimer1SecCounts, F, 1
1146  0E1E      	MOVLW 0x1E
1148  6184      	CPFSLT gbl_iTimer1SecCounts, 1
114A  D001      	BRA	label178
114C  D00F      	BRA	label180
114E            label178
114E  537C      	MOVF gbl_iPower, F, 1
1150  E00C      	BZ	label179
1152  A481      	BTFSS gbl_portb,2
1154  D00A      	BRA	label179
1156  8280      	BSF gbl_porta,1
1158  9680      	BCF gbl_porta,3
115A  8A80      	BSF gbl_porta,5
115C  6B82      	CLRF gbl_iFunctionMode, 1
115E  ECCCF002  	CALL showVolume_00000
1162  EC45F003  	CALL showInput_00000
1166  EC58F000  	CALL ledWrite_00000
116A            label179
116A  6B84      	CLRF gbl_iTimer1SecCounts, 1
116C            label180
116C  AC83      	BTFSS gbl_portd,6
116E  D02E      	BRA	label182
1170  537C      	MOVF gbl_iPower, F, 1
1172  E02C      	BZ	label182
1174  537D      	MOVF gbl_iPowerExternal, F, 1
1176  E02A      	BZ	label182
1178  5385      	MOVF gbl_iTimer1OffCount, F, 1
117A  E105      	BNZ	label181
117C  0E0A      	MOVLW 0x0A
117E  6F85      	MOVWF gbl_iTimer1OffCount, 1
1180  EC2FF007  	CALL doPower_00000
1184  0012      	RETURN
1186            label181
1186  0785      	DECF gbl_iTimer1OffCount, F, 1
1188  0E01      	MOVLW 0x01
118A  6F99      	MOVWF ledPrint_00000_arg_iLine, 1
118C  0E20      	MOVLW 0x20
118E  6F9F      	MOVWF CompTempVar713+D'3', 1
1190  6FA2      	MOVWF CompTempVar713+D'6', 1
1192  0E49      	MOVLW 0x49
1194  6FA0      	MOVWF CompTempVar713+D'4', 1
1196  0E4F      	MOVLW 0x4F
1198  6F9C      	MOVWF CompTempVar713, 1
119A  0E66      	MOVLW 0x66
119C  6F9D      	MOVWF CompTempVar713+D'1', 1
119E  6F9E      	MOVWF CompTempVar713+D'2', 1
11A0  0E6E      	MOVLW 0x6E
11A2  6FA1      	MOVWF CompTempVar713+D'5', 1
11A4  6BA3      	CLRF CompTempVar713+D'7', 1
11A6  0E00      	MOVLW HIGH(CompTempVar713+D'0')
11A8  6F9B      	MOVWF ledPrint_00000_arg_s+D'1', 1
11AA  0E9C      	MOVLW LOW(CompTempVar713+D'0')
11AC  6F9A      	MOVWF ledPrint_00000_arg_s, 1
11AE  EC81F000  	CALL ledPrint_00000
11B2  0E01      	MOVLW 0x01
11B4  6F86      	MOVWF gbl_ledCurrentLine, 1
11B6  0E07      	MOVLW 0x07
11B8  6F87      	MOVWF gbl_ledCurrentCol, 1
11BA  0E30      	MOVLW 0x30
11BC  2585      	ADDWF gbl_iTimer1OffCount, W, 1
11BE  6F9B      	MOVWF ledChar_00000_arg_iChar, 1
11C0  6B9C      	CLRF ledChar_00000_arg_iHasDot, 1
11C2  ECE0F000  	CALL ledChar_00000
11C6  EC58F000  	CALL ledWrite_00000
11CA  0012      	RETURN
11CC            label182
11CC  0E0A      	MOVLW 0x0A
11CE  6185      	CPFSLT gbl_iTimer1OffCount, 1
11D0  0012      	RETURN
11D2  0E0A      	MOVLW 0x0A
11D4  6F85      	MOVWF gbl_iTimer1OffCount, 1
11D6  6B82      	CLRF gbl_iFunctionMode, 1
11D8  ECCCF002  	CALL showVolume_00000
11DC  EC45F003  	CALL showInput_00000
11E0  EC58F000  	CALL ledWrite_00000
11E4  0012      	RETURN
11E6            ; } onTimer1 function end

	ORG 0x000011E6
11E6            initialise_00000
11E6            ; { initialise ; function begin
11E6  6A92      	CLRF gbl_trisa
11E8  6A80      	CLRF gbl_porta
11EA  0E07      	MOVLW 0x07
11EC  6E93      	MOVWF gbl_trisb
11EE  0E20      	MOVLW 0x20
11F0  6E81      	MOVWF gbl_portb
11F2  0EC0      	MOVLW 0xC0
11F4  6E94      	MOVWF gbl_trisc
11F6  0E04      	MOVLW 0x04
11F8  6E82      	MOVWF gbl_portc
11FA  0E40      	MOVLW 0x40
11FC  6E95      	MOVWF gbl_trisd
11FE  0E80      	MOVLW 0x80
1200  6E83      	MOVWF gbl_portd
1202  6A96      	CLRF gbl_trise
1204  6A84      	CLRF gbl_porte
1206  8ED3      	BSF gbl_osccon,7
1208  8CD3      	BSF gbl_osccon,6
120A  8AD3      	BSF gbl_osccon,5
120C  98D3      	BCF gbl_osccon,4
120E  6AC2      	CLRF gbl_adcon0
1210  0E0F      	MOVLW 0x0F
1212  6EC1      	MOVWF gbl_adcon1
1214  EC98F005  	CALL readData_00000
1218  EC89F002  	CALL writeRelay_00000
121C  0E30      	MOVLW 0x30
121E  6ECD      	MOVWF gbl_t1con
1220  6B83      	CLRF gbl_iTimer1Count, 1
1222  0E0C      	MOVLW 0x0C
1224  6ECF      	MOVWF gbl_tmr1h
1226  809D      	BSF gbl_pie1,0
1228  909E      	BCF gbl_pir1,0
122A  0E29      	MOVLW 0x29
122C  6ECA      	MOVWF gbl_t2con
122E  0E5C      	MOVLW 0x5C
1230  6ECB      	MOVWF gbl_pr2
1232  829D      	BSF gbl_pie1,1
1234  92A1      	BCF gbl_pir2,1
1236  88F2      	BSF gbl_intcon,4
1238  8CF1      	BSF gbl_intcon2,6
123A  92F2      	BCF gbl_intcon,1
123C  86F0      	BSF gbl_intcon3,3
123E  9AF1      	BCF gbl_intcon2,5
1240  90F0      	BCF gbl_intcon3,0
1242  88F0      	BSF gbl_intcon3,4
1244  98F1      	BCF gbl_intcon2,4
1246  92F0      	BCF gbl_intcon3,1
1248  8EF1      	BSF gbl_intcon2,7
124A  8CF2      	BSF gbl_intcon,6
124C  8680      	BSF gbl_porta,3
124E  0E02      	MOVLW 0x02
1250  6F94      	MOVWF delay_s_00000_arg_del, 1
1252  EC28F000  	CALL delay_s_00000
1256  ECC0F003  	CALL ledOn_00000
125A  ECDCF005  	CALL ledTest_00000
125E  0E02      	MOVLW 0x02
1260  6F94      	MOVWF delay_s_00000_arg_del, 1
1262  EC28F000  	CALL delay_s_00000
1266  ECE4F003  	CALL ledOff_00000
126A  8EF2      	BSF gbl_intcon,7
126C  0012      	RETURN
126E            ; } initialise function end

	ORG 0x0000126E
126E            doMute_00000
126E            ; { doMute ; function begin
126E  0100      	MOVLB 0x00
1270  6B93      	CLRF CompTempVar668, 1
1272  5374      	MOVF gbl_iMute, F, 1
1274  B4D8      	BTFSC STATUS,Z
1276  2B93      	INCF CompTempVar668, F, 1
1278  5193      	MOVF CompTempVar668, W, 1
127A  6F74      	MOVWF gbl_iMute, 1
127C  ECDDF001  	CALL writeVolum_0001E
1280  0012      	RETURN
1282            ; } doMute function end

	ORG 0x00001282
1282            main
1282            ; { main ; function begin
1282  ECF3F008  	CALL initialise_00000
1286            label183
1286  0E00      	MOVLW 0x00
1288  6572      	CPFSGT gbl_cTask, 1
128A  D030      	BRA	label189
128C  A972      	BTFSS gbl_cTask,4, 1
128E  D005      	BRA	label184
1290  ECA7F003  	CALL showFault_00000
1294  80CD      	BSF gbl_t1con,0
1296  9972      	BCF gbl_cTask,4, 1
1298  D7F6      	BRA	label183
129A            label184
129A  A172      	BTFSS gbl_cTask,0, 1
129C  D004      	BRA	label185
129E  ECD8F007  	CALL saveData_00000
12A2  9172      	BCF gbl_cTask,0, 1
12A4  D7F0      	BRA	label183
12A6            label185
12A6  AB72      	BTFSS gbl_cTask,5, 1
12A8  D00A      	BRA	label186
12AA  EC37F009  	CALL doMute_00000
12AE  ECCCF002  	CALL showVolume_00000
12B2  EC58F000  	CALL ledWrite_00000
12B6  EC92F005  	CALL timer1Rese_0001A
12BA  9B72      	BCF gbl_cTask,5, 1
12BC  D7E4      	BRA	label183
12BE            label186
12BE  AD72      	BTFSS gbl_cTask,6, 1
12C0  D008      	BRA	label187
12C2  0E01      	MOVLW 0x01
12C4  6F82      	MOVWF gbl_iFunctionMode, 1
12C6  EC0FF004  	CALL functionDi_00022
12CA  EC92F005  	CALL timer1Rese_0001A
12CE  9D72      	BCF gbl_cTask,6, 1
12D0  D7DA      	BRA	label183
12D2            label187
12D2  AF72      	BTFSS gbl_cTask,7, 1
12D4  D004      	BRA	label188
12D6  ECA1F008  	CALL onTimer1_00000
12DA  9F72      	BCF gbl_cTask,7, 1
12DC  D7D4      	BRA	label183
12DE            label188
12DE  A772      	BTFSS gbl_cTask,3, 1
12E0  D7D2      	BRA	label183
12E2  EC1BF008  	CALL rc5Process_00000
12E6  9480      	BCF gbl_porta,2
12E8  9772      	BCF gbl_cTask,3, 1
12EA  D7CD      	BRA	label183
12EC            label189
12EC  BC83      	BTFSC gbl_portd,6
12EE  D009      	BRA	label190
12F0  677C      	TSTFSZ gbl_iPower, 1
12F2  D007      	BRA	label190
12F4  677D      	TSTFSZ gbl_iPowerExternal, 1
12F6  D005      	BRA	label190
12F8  0E01      	MOVLW 0x01
12FA  6F7D      	MOVWF gbl_iPowerExternal, 1
12FC  6B7E      	CLRF gbl_iActiveInput, 1
12FE  EC2FF007  	CALL doPower_00000
1302            label190
1302  AC83      	BTFSS gbl_portd,6
1304  D7C0      	BRA	label183
1306  677C      	TSTFSZ gbl_iPower, 1
1308  D7BE      	BRA	label183
130A  6B7D      	CLRF gbl_iPowerExternal, 1
130C  D7BC      	BRA	label183
130E            ; } main function end

	ORG 0x0000130E
130E            _startup
130E  0100      	MOVLB 0x00
1310  6B72      	CLRF gbl_cTask, 1
1312  6B73      	CLRF gbl_iVolume, 1
1314  6B74      	CLRF gbl_iMute, 1
1316  6B75      	CLRF gbl_iMuteHeld, 1
1318  6B76      	CLRF gbl_iMuteWasPressed, 1
131A  6B77      	CLRF gbl_iFrontBalance, 1
131C  6B78      	CLRF gbl_iRearBalance, 1
131E  6B79      	CLRF gbl_iRearAdjust, 1
1320  6B7A      	CLRF gbl_iCentreAdjust, 1
1322  6B7B      	CLRF gbl_iSubAdjust, 1
1324  6B7C      	CLRF gbl_iPower, 1
1326  6B7D      	CLRF gbl_iPowerExternal, 1
1328  6B7E      	CLRF gbl_iActiveInput, 1
132A  0E01      	MOVLW 0x01
132C  6F7F      	MOVWF gbl_iTrigger, 1
132E  0E01      	MOVLW 0x01
1330  6F80      	MOVWF gbl_iSurroundMode, 1
1332  0E01      	MOVLW 0x01
1334  6F81      	MOVWF gbl_iExtSurroundMode, 1
1336  6B82      	CLRF gbl_iFunctionMode, 1
1338  6B83      	CLRF gbl_iTimer1Count, 1
133A  6B84      	CLRF gbl_iTimer1SecCounts, 1
133C  0E0A      	MOVLW 0x0A
133E  6F85      	MOVWF gbl_iTimer1OffCount, 1
1340  6A05      	CLRF gbl_displayASCIItoSeg
1342  6A06      	CLRF gbl_displayASCIItoSeg+D'1'
1344  0E22      	MOVLW 0x22
1346  6E07      	MOVWF gbl_displayASCIItoSeg+D'2'
1348  6A08      	CLRF gbl_displayASCIItoSeg+D'3'
134A  6A09      	CLRF gbl_displayASCIItoSeg+D'4'
134C  6A0A      	CLRF gbl_displayASCIItoSeg+D'5'
134E  6A0B      	CLRF gbl_displayASCIItoSeg+D'6'
1350  0E20      	MOVLW 0x20
1352  6E0C      	MOVWF gbl_displayASCIItoSeg+D'7'
1354  0E4E      	MOVLW 0x4E
1356  6E0D      	MOVWF gbl_displayASCIItoSeg+D'8'
1358  0E78      	MOVLW 0x78
135A  6E0E      	MOVWF gbl_displayASCIItoSeg+D'9'
135C  6A0F      	CLRF gbl_displayASCIItoSeg+D'10'
135E  6A10      	CLRF gbl_displayASCIItoSeg+D'11'
1360  6A11      	CLRF gbl_displayASCIItoSeg+D'12'
1362  0E01      	MOVLW 0x01
1364  6E12      	MOVWF gbl_displayASCIItoSeg+D'13'
1366  6A13      	CLRF gbl_displayASCIItoSeg+D'14'
1368  6A14      	CLRF gbl_displayASCIItoSeg+D'15'
136A  0E7E      	MOVLW 0x7E
136C  6E15      	MOVWF gbl_displayASCIItoSeg+D'16'
136E  0E30      	MOVLW 0x30
1370  6E16      	MOVWF gbl_displayASCIItoSeg+D'17'
1372  0E6D      	MOVLW 0x6D
1374  6E17      	MOVWF gbl_displayASCIItoSeg+D'18'
1376  0E79      	MOVLW 0x79
1378  6E18      	MOVWF gbl_displayASCIItoSeg+D'19'
137A  0E33      	MOVLW 0x33
137C  6E19      	MOVWF gbl_displayASCIItoSeg+D'20'
137E  0E5B      	MOVLW 0x5B
1380  6E1A      	MOVWF gbl_displayASCIItoSeg+D'21'
1382  0E5F      	MOVLW 0x5F
1384  6E1B      	MOVWF gbl_displayASCIItoSeg+D'22'
1386  0E70      	MOVLW 0x70
1388  6E1C      	MOVWF gbl_displayASCIItoSeg+D'23'
138A  0E7F      	MOVLW 0x7F
138C  6E1D      	MOVWF gbl_displayASCIItoSeg+D'24'
138E  0E7B      	MOVLW 0x7B
1390  6E1E      	MOVWF gbl_displayASCIItoSeg+D'25'
1392  6A1F      	CLRF gbl_displayASCIItoSeg+D'26'
1394  6A20      	CLRF gbl_displayASCIItoSeg+D'27'
1396  6A21      	CLRF gbl_displayASCIItoSeg+D'28'
1398  0E09      	MOVLW 0x09
139A  6E22      	MOVWF gbl_displayASCIItoSeg+D'29'
139C  6A23      	CLRF gbl_displayASCIItoSeg+D'30'
139E  0E65      	MOVLW 0x65
13A0  6E24      	MOVWF gbl_displayASCIItoSeg+D'31'
13A2  6A25      	CLRF gbl_displayASCIItoSeg+D'32'
13A4  0E77      	MOVLW 0x77
13A6  6E26      	MOVWF gbl_displayASCIItoSeg+D'33'
13A8  0E1F      	MOVLW 0x1F
13AA  6E27      	MOVWF gbl_displayASCIItoSeg+D'34'
13AC  0E4E      	MOVLW 0x4E
13AE  6E28      	MOVWF gbl_displayASCIItoSeg+D'35'
13B0  0E3D      	MOVLW 0x3D
13B2  6E29      	MOVWF gbl_displayASCIItoSeg+D'36'
13B4  0E4F      	MOVLW 0x4F
13B6  6E2A      	MOVWF gbl_displayASCIItoSeg+D'37'
13B8  0E47      	MOVLW 0x47
13BA  6E2B      	MOVWF gbl_displayASCIItoSeg+D'38'
13BC  0E5E      	MOVLW 0x5E
13BE  6E2C      	MOVWF gbl_displayASCIItoSeg+D'39'
13C0  0E37      	MOVLW 0x37
13C2  6E2D      	MOVWF gbl_displayASCIItoSeg+D'40'
13C4  0E30      	MOVLW 0x30
13C6  6E2E      	MOVWF gbl_displayASCIItoSeg+D'41'
13C8  0E3C      	MOVLW 0x3C
13CA  6E2F      	MOVWF gbl_displayASCIItoSeg+D'42'
13CC  6A30      	CLRF gbl_displayASCIItoSeg+D'43'
13CE  0E0E      	MOVLW 0x0E
13D0  6E31      	MOVWF gbl_displayASCIItoSeg+D'44'
13D2  6A32      	CLRF gbl_displayASCIItoSeg+D'45'
13D4  0E15      	MOVLW 0x15
13D6  6E33      	MOVWF gbl_displayASCIItoSeg+D'46'
13D8  0E7E      	MOVLW 0x7E
13DA  6E34      	MOVWF gbl_displayASCIItoSeg+D'47'
13DC  0E67      	MOVLW 0x67
13DE  6E35      	MOVWF gbl_displayASCIItoSeg+D'48'
13E0  6A36      	CLRF gbl_displayASCIItoSeg+D'49'
13E2  0E05      	MOVLW 0x05
13E4  6E37      	MOVWF gbl_displayASCIItoSeg+D'50'
13E6  0E5B      	MOVLW 0x5B
13E8  6E38      	MOVWF gbl_displayASCIItoSeg+D'51'
13EA  0E70      	MOVLW 0x70
13EC  6E39      	MOVWF gbl_displayASCIItoSeg+D'52'
13EE  0E3E      	MOVLW 0x3E
13F0  6E3A      	MOVWF gbl_displayASCIItoSeg+D'53'
13F2  6A3B      	CLRF gbl_displayASCIItoSeg+D'54'
13F4  6A3C      	CLRF gbl_displayASCIItoSeg+D'55'
13F6  6A3D      	CLRF gbl_displayASCIItoSeg+D'56'
13F8  0E3B      	MOVLW 0x3B
13FA  6E3E      	MOVWF gbl_displayASCIItoSeg+D'57'
13FC  6A3F      	CLRF gbl_displayASCIItoSeg+D'58'
13FE  6A40      	CLRF gbl_displayASCIItoSeg+D'59'
1400  6A41      	CLRF gbl_displayASCIItoSeg+D'60'
1402  6A42      	CLRF gbl_displayASCIItoSeg+D'61'
1404  6A43      	CLRF gbl_displayASCIItoSeg+D'62'
1406  6A44      	CLRF gbl_displayASCIItoSeg+D'63'
1408  6A45      	CLRF gbl_displayASCIItoSeg+D'64'
140A  0E7D      	MOVLW 0x7D
140C  6E46      	MOVWF gbl_displayASCIItoSeg+D'65'
140E  0E1F      	MOVLW 0x1F
1410  6E47      	MOVWF gbl_displayASCIItoSeg+D'66'
1412  0E0D      	MOVLW 0x0D
1414  6E48      	MOVWF gbl_displayASCIItoSeg+D'67'
1416  0E3D      	MOVLW 0x3D
1418  6E49      	MOVWF gbl_displayASCIItoSeg+D'68'
141A  0E6F      	MOVLW 0x6F
141C  6E4A      	MOVWF gbl_displayASCIItoSeg+D'69'
141E  0E47      	MOVLW 0x47
1420  6E4B      	MOVWF gbl_displayASCIItoSeg+D'70'
1422  0E5E      	MOVLW 0x5E
1424  6E4C      	MOVWF gbl_displayASCIItoSeg+D'71'
1426  0E17      	MOVLW 0x17
1428  6E4D      	MOVWF gbl_displayASCIItoSeg+D'72'
142A  0E10      	MOVLW 0x10
142C  6E4E      	MOVWF gbl_displayASCIItoSeg+D'73'
142E  0E3C      	MOVLW 0x3C
1430  6E4F      	MOVWF gbl_displayASCIItoSeg+D'74'
1432  6A50      	CLRF gbl_displayASCIItoSeg+D'75'
1434  0E0E      	MOVLW 0x0E
1436  6E51      	MOVWF gbl_displayASCIItoSeg+D'76'
1438  6A52      	CLRF gbl_displayASCIItoSeg+D'77'
143A  0E15      	MOVLW 0x15
143C  6E53      	MOVWF gbl_displayASCIItoSeg+D'78'
143E  0E1D      	MOVLW 0x1D
1440  6E54      	MOVWF gbl_displayASCIItoSeg+D'79'
1442  0E67      	MOVLW 0x67
1444  6E55      	MOVWF gbl_displayASCIItoSeg+D'80'
1446  6A56      	CLRF gbl_displayASCIItoSeg+D'81'
1448  0E05      	MOVLW 0x05
144A  6E57      	MOVWF gbl_displayASCIItoSeg+D'82'
144C  0E5B      	MOVLW 0x5B
144E  6E58      	MOVWF gbl_displayASCIItoSeg+D'83'
1450  0E0F      	MOVLW 0x0F
1452  6E59      	MOVWF gbl_displayASCIItoSeg+D'84'
1454  0E1C      	MOVLW 0x1C
1456  6E5A      	MOVWF gbl_displayASCIItoSeg+D'85'
1458  6A5B      	CLRF gbl_displayASCIItoSeg+D'86'
145A  6A5C      	CLRF gbl_displayASCIItoSeg+D'87'
145C  6A5D      	CLRF gbl_displayASCIItoSeg+D'88'
145E  0E3B      	MOVLW 0x3B
1460  6E5E      	MOVWF gbl_displayASCIItoSeg+D'89'
1462  6A5F      	CLRF gbl_displayASCIItoSeg+D'90'
1464  0E01      	MOVLW 0x01
1466  6F86      	MOVWF gbl_ledCurrentLine, 1
1468  6B87      	CLRF gbl_ledCurrentCol, 1
146A  6B88      	CLRF gbl_intfCounter, 1
146C  6B89      	CLRF gbl_rc5_Held, 1
146E  6B8D      	CLRF gbl_rc5_currentState, 1
1470  0E01      	MOVLW 0x01
1472  6F8E      	MOVWF gbl_rc5_pinState, 1
1474  6B8F      	CLRF gbl_rc5_flickBit, 1
1476  6B90      	CLRF gbl_rc5_flickBitOld, 1
1478  6B91      	CLRF gbl_rc5_address, 1
147A  6B92      	CLRF gbl_rc5_command, 1
147C  EF41F009  	GOTO	main
	ORG 0x00001480
1480            interrupt
1480            ; { interrupt ; function begin
1480  CFEAF001  	MOVFF FSR0H,  Int1Context
1484  CFE9F002  	MOVFF FSR0L,  Int1Context+D'1'
1488  CFF4F003  	MOVFF PRODH,  Int1Context+D'2'
148C  CFF3F004  	MOVFF PRODL,  Int1Context+D'3'
1490  A2F0      	BTFSS gbl_intcon3,1
1492  D009      	BRA	label193
1494  A8F0      	BTFSS gbl_intcon3,4
1496  D007      	BRA	label193
1498  B481      	BTFSC gbl_portb,2
149A  D003      	BRA	label192
149C  9280      	BCF gbl_porta,1
149E  0100      	MOVLB 0x00
14A0  8972      	BSF gbl_cTask,4, 1
14A2            label192
14A2  92F0      	BCF gbl_intcon3,1
14A4  D09E      	BRA	label217
14A6            label193
14A6  A2F2      	BTFSS gbl_intcon,1
14A8  D007      	BRA	label194
14AA  A8F2      	BTFSS gbl_intcon,4
14AC  D005      	BRA	label194
14AE  9280      	BCF gbl_porta,1
14B0  0100      	MOVLB 0x00
14B2  8172      	BSF gbl_cTask,0, 1
14B4  92F2      	BCF gbl_intcon,1
14B6  D095      	BRA	label217
14B8            label194
14B8  A0F0      	BTFSS gbl_intcon3,0
14BA  D015      	BRA	label196
14BC  A6F0      	BTFSS gbl_intcon3,3
14BE  D013      	BRA	label196
14C0  0100      	MOVLB 0x00
14C2  B188      	BTFSC gbl_intfCounter,0, 1
14C4  8AF1      	BSF gbl_intcon2,5
14C6  A188      	BTFSS gbl_intfCounter,0, 1
14C8  9AF1      	BCF gbl_intcon2,5
14CA  2B88      	INCF gbl_intfCounter, F, 1
14CC  2B8C      	INCF gbl_rc5_logicChange, F, 1
14CE  538D      	MOVF gbl_rc5_currentState, F, 1
14D0  E109      	BNZ	label195
14D2  6B8B      	CLRF gbl_rc5_logicInterval, 1
14D4  6B8C      	CLRF gbl_rc5_logicChange, 1
14D6  6ACC      	CLRF gbl_tmr2
14D8  0E15      	MOVLW 0x15
14DA  6ECB      	MOVWF gbl_pr2
14DC  929E      	BCF gbl_pir1,1
14DE  84CA      	BSF gbl_t2con,2
14E0  0E01      	MOVLW 0x01
14E2  6F8D      	MOVWF gbl_rc5_currentState, 1
14E4            label195
14E4  90F0      	BCF gbl_intcon3,0
14E6            label196
14E6  A29E      	BTFSS gbl_pir1,1
14E8  D069      	BRA	label213
14EA  0100      	MOVLB 0x00
14EC  6B8E      	CLRF gbl_rc5_pinState, 1
14EE  A281      	BTFSS gbl_portb,1
14F0  D001      	BRA	label197
14F2  2B8E      	INCF gbl_rc5_pinState, F, 1
14F4            label197
14F4  058D      	DECF gbl_rc5_currentState, W, 1
14F6  E005      	BZ	label198
14F8  2B8B      	INCF gbl_rc5_logicInterval, F, 1
14FA  B18B      	BTFSC gbl_rc5_logicInterval,0, 1
14FC  8480      	BSF gbl_porta,2
14FE  A18B      	BTFSS gbl_rc5_logicInterval,0, 1
1500  9480      	BCF gbl_porta,2
1502            label198
1502  6BAA      	CLRF interrupt_27_iReset, 1
1504  058D      	DECF gbl_rc5_currentState, W, 1
1506  E008      	BZ	label200
1508  0E02      	MOVLW 0x02
150A  638D      	CPFSEQ gbl_rc5_currentState, 1
150C  D001      	BRA	label199
150E  D00A      	BRA	label201
1510            label199
1510  0E03      	MOVLW 0x03
1512  638D      	CPFSEQ gbl_rc5_currentState, 1
1514  D04A      	BRA	label210
1516  D015      	BRA	label203
1518            label200
1518  6ACC      	CLRF gbl_tmr2
151A  0E5C      	MOVLW 0x5C
151C  6ECB      	MOVWF gbl_pr2
151E  0E02      	MOVLW 0x02
1520  6F8D      	MOVWF gbl_rc5_currentState, 1
1522  D045      	BRA	label211
1524            label201
1524  058B      	DECF gbl_rc5_logicInterval, W, 1
1526  E10A      	BNZ	label202
1528  058C      	DECF gbl_rc5_logicChange, W, 1
152A  E108      	BNZ	label202
152C  6B8B      	CLRF gbl_rc5_logicInterval, 1
152E  6B8C      	CLRF gbl_rc5_logicChange, 1
1530  6B8A      	CLRF gbl_rc5_bitCount, 1
1532  6B70      	CLRF gbl_rc5_inputData, 1
1534  6B71      	CLRF gbl_rc5_inputData+D'1', 1
1536  0E03      	MOVLW 0x03
1538  6F8D      	MOVWF gbl_rc5_currentState, 1
153A  D039      	BRA	label211
153C            label202
153C  0E01      	MOVLW 0x01
153E  6FAA      	MOVWF interrupt_27_iReset, 1
1540  D036      	BRA	label211
1542            label203
1542  0E02      	MOVLW 0x02
1544  638B      	CPFSEQ gbl_rc5_logicInterval, 1
1546  D033      	BRA	label211
1548  518C      	MOVF gbl_rc5_logicChange, W, 1
154A  0802      	SUBLW 0x02
154C  E32B      	BNC	label209
154E  6B8B      	CLRF gbl_rc5_logicInterval, 1
1550  6B8C      	CLRF gbl_rc5_logicChange, 1
1552  0E0C      	MOVLW 0x0C
1554  618A      	CPFSLT gbl_rc5_bitCount, 1
1556  D008      	BRA	label204
1558  2B8A      	INCF gbl_rc5_bitCount, F, 1
155A  90D8      	BCF STATUS,C
155C  3770      	RLCF gbl_rc5_inputData, F, 1
155E  3771      	RLCF gbl_rc5_inputData+D'1', F, 1
1560  058E      	DECF gbl_rc5_pinState, W, 1
1562  B4D8      	BTFSC STATUS,Z
1564  8170      	BSF gbl_rc5_inputData,0, 1
1566  D023      	BRA	label211
1568            label204
1568  0E3F      	MOVLW 0x3F
156A  1570      	ANDWF gbl_rc5_inputData, W, 1
156C  6F92      	MOVWF gbl_rc5_command, 1
156E  0E06      	MOVLW 0x06
1570  6FAB      	MOVWF CompTempVar711, 1
1572  53AB      	MOVF CompTempVar711, F, 1
1574            label205
1574  E005      	BZ	label206
1576  90D8      	BCF STATUS,C
1578  3371      	RRCF gbl_rc5_inputData+D'1', F, 1
157A  3370      	RRCF gbl_rc5_inputData, F, 1
157C  07AB      	DECF CompTempVar711, F, 1
157E  D7FA      	BRA	label205
1580            label206
1580  0E1F      	MOVLW 0x1F
1582  1570      	ANDWF gbl_rc5_inputData, W, 1
1584  6F91      	MOVWF gbl_rc5_address, 1
1586  0E05      	MOVLW 0x05
1588  6FAB      	MOVWF CompTempVar712, 1
158A  53AB      	MOVF CompTempVar712, F, 1
158C            label207
158C  E005      	BZ	label208
158E  90D8      	BCF STATUS,C
1590  3371      	RRCF gbl_rc5_inputData+D'1', F, 1
1592  3370      	RRCF gbl_rc5_inputData, F, 1
1594  07AB      	DECF CompTempVar712, F, 1
1596  D7FA      	BRA	label207
1598            label208
1598  5170      	MOVF gbl_rc5_inputData, W, 1
159A  6F8F      	MOVWF gbl_rc5_flickBit, 1
159C  8772      	BSF gbl_cTask,3, 1
159E  0E01      	MOVLW 0x01
15A0  6FAA      	MOVWF interrupt_27_iReset, 1
15A2  D005      	BRA	label211
15A4            label209
15A4  0E01      	MOVLW 0x01
15A6  6FAA      	MOVWF interrupt_27_iReset, 1
15A8  D002      	BRA	label211
15AA            label210
15AA  0E01      	MOVLW 0x01
15AC  6FAA      	MOVWF interrupt_27_iReset, 1
15AE            label211
15AE  53AA      	MOVF interrupt_27_iReset, F, 1
15B0  E004      	BZ	label212
15B2  6B8D      	CLRF gbl_rc5_currentState, 1
15B4  94CA      	BCF gbl_t2con,2
15B6  9AF1      	BCF gbl_intcon2,5
15B8  9480      	BCF gbl_porta,2
15BA            label212
15BA  929E      	BCF gbl_pir1,1
15BC            label213
15BC  A09E      	BTFSS gbl_pir1,0
15BE  D011      	BRA	label217
15C0  A09D      	BTFSS gbl_pie1,0
15C2  D00F      	BRA	label217
15C4  0E09      	MOVLW 0x09
15C6  0100      	MOVLB 0x00
15C8  6175      	CPFSLT gbl_iMuteHeld, 1
15CA  D003      	BRA	label214
15CC  5376      	MOVF gbl_iMuteWasPressed, F, 1
15CE  A4D8      	BTFSS STATUS,Z
15D0  8B72      	BSF gbl_cTask,5, 1
15D2            label214
15D2  2B83      	INCF gbl_iTimer1Count, F, 1
15D4  0E05      	MOVLW 0x05
15D6  6183      	CPFSLT gbl_iTimer1Count, 1
15D8  D001      	BRA	label215
15DA  D002      	BRA	label216
15DC            label215
15DC  6B83      	CLRF gbl_iTimer1Count, 1
15DE  8F72      	BSF gbl_cTask,7, 1
15E0            label216
15E0  909E      	BCF gbl_pir1,0
15E2            label217
15E2  C004FFF3  	MOVFF Int1Context+D'3',  PRODL
15E6  C003FFF4  	MOVFF Int1Context+D'2',  PRODH
15EA  C002FFE9  	MOVFF Int1Context+D'1',  FSR0L
15EE  C001FFEA  	MOVFF Int1Context,  FSR0H
15F2  0011      	RETFIE 1
15F4            ; } interrupt function end

	ORG 0x00300000
300000  8D08      	DW 0x8D08
300002  1E1F      	DW 0x1E1F
	ORG 0x00300004
300004  80FF      	DW 0x80FF
300006  FF80      	DW 0xFF80
	ORG 0x00300008
300008  C00F      	DW 0xC00F
30000A  E00F      	DW 0xE00F
30000C  400F      	DW 0x400F
